000000000009dc70 T _ZNKSt10bad_typeid4whatEv
000000000009d9b0 T _ZNKSt11logic_error4whatEv
00000000000cf510 T _ZNKSt12bad_any_cast4whatEv
00000000000cf520 T _ZNKSt12experimental15fundamentals_v112bad_any_cast4whatEv
000000000009d860 T _ZNKSt13bad_exception4whatEv
000000000009da54 T _ZNKSt13runtime_error4whatEv
00000000000d202c T _ZNKSt16nested_exception14rethrow_nestedEv
00000000000e2bd8 T _ZNKSt18bad_variant_access4whatEv
00000000000d505c T _ZNKSt19bad_optional_access4whatEv
000000000009d908 T _ZNKSt20bad_array_new_length4whatEv
00000000001045cc T _ZNKSt6__ndk110__time_put8__do_putEPcRS1_PK2tmcc
00000000001049c8 T _ZNKSt6__ndk110__time_put8__do_putEPwRS1_PK2tmcc
00000000000e186c T _ZNKSt6__ndk110error_code7messageEv
0000000000104ad8 W _ZNKSt6__ndk110moneypunctIcLb0EE11do_groupingEv
0000000000104b38 W _ZNKSt6__ndk110moneypunctIcLb0EE13do_neg_formatEv
0000000000104b28 W _ZNKSt6__ndk110moneypunctIcLb0EE13do_pos_formatEv
0000000000104ae8 W _ZNKSt6__ndk110moneypunctIcLb0EE14do_curr_symbolEv
0000000000104b1c W _ZNKSt6__ndk110moneypunctIcLb0EE14do_frac_digitsEv
0000000000104ac0 W _ZNKSt6__ndk110moneypunctIcLb0EE16do_decimal_pointEv
0000000000104b08 W _ZNKSt6__ndk110moneypunctIcLb0EE16do_negative_signEv
0000000000104af8 W _ZNKSt6__ndk110moneypunctIcLb0EE16do_positive_signEv
0000000000104acc W _ZNKSt6__ndk110moneypunctIcLb0EE16do_thousands_sepEv
0000000000104b60 W _ZNKSt6__ndk110moneypunctIcLb1EE11do_groupingEv
0000000000104bc0 W _ZNKSt6__ndk110moneypunctIcLb1EE13do_neg_formatEv
0000000000104bb0 W _ZNKSt6__ndk110moneypunctIcLb1EE13do_pos_formatEv
0000000000104b70 W _ZNKSt6__ndk110moneypunctIcLb1EE14do_curr_symbolEv
0000000000104ba4 W _ZNKSt6__ndk110moneypunctIcLb1EE14do_frac_digitsEv
0000000000104b48 W _ZNKSt6__ndk110moneypunctIcLb1EE16do_decimal_pointEv
0000000000104b90 W _ZNKSt6__ndk110moneypunctIcLb1EE16do_negative_signEv
0000000000104b80 W _ZNKSt6__ndk110moneypunctIcLb1EE16do_positive_signEv
0000000000104b54 W _ZNKSt6__ndk110moneypunctIcLb1EE16do_thousands_sepEv
0000000000104be8 W _ZNKSt6__ndk110moneypunctIwLb0EE11do_groupingEv
0000000000104c50 W _ZNKSt6__ndk110moneypunctIwLb0EE13do_neg_formatEv
0000000000104c40 W _ZNKSt6__ndk110moneypunctIwLb0EE13do_pos_formatEv
0000000000104bf8 W _ZNKSt6__ndk110moneypunctIwLb0EE14do_curr_symbolEv
0000000000104c34 W _ZNKSt6__ndk110moneypunctIwLb0EE14do_frac_digitsEv
0000000000104bd0 W _ZNKSt6__ndk110moneypunctIwLb0EE16do_decimal_pointEv
0000000000104c18 W _ZNKSt6__ndk110moneypunctIwLb0EE16do_negative_signEv
0000000000104c08 W _ZNKSt6__ndk110moneypunctIwLb0EE16do_positive_signEv
0000000000104bdc W _ZNKSt6__ndk110moneypunctIwLb0EE16do_thousands_sepEv
0000000000104c78 W _ZNKSt6__ndk110moneypunctIwLb1EE11do_groupingEv
0000000000104ce0 W _ZNKSt6__ndk110moneypunctIwLb1EE13do_neg_formatEv
0000000000104cd0 W _ZNKSt6__ndk110moneypunctIwLb1EE13do_pos_formatEv
0000000000104c88 W _ZNKSt6__ndk110moneypunctIwLb1EE14do_curr_symbolEv
0000000000104cc4 W _ZNKSt6__ndk110moneypunctIwLb1EE14do_frac_digitsEv
0000000000104c60 W _ZNKSt6__ndk110moneypunctIwLb1EE16do_decimal_pointEv
0000000000104ca8 W _ZNKSt6__ndk110moneypunctIwLb1EE16do_negative_signEv
0000000000104c98 W _ZNKSt6__ndk110moneypunctIwLb1EE16do_positive_signEv
0000000000104c6c W _ZNKSt6__ndk110moneypunctIwLb1EE16do_thousands_sepEv
00000000000d3854 T _ZNKSt6__ndk112bad_weak_ptr4whatEv
00000000000da728 W _ZNKSt6__ndk112basic_stringIcNS_11char_traitsIcEENS_9allocatorIcEEE12find_last_ofEPKcmm
00000000000d9d50 W _ZNKSt6__ndk112basic_stringIcNS_11char_traitsIcEENS_9allocatorIcEEE13find_first_ofEPKcmm
00000000000d95fc W _ZNKSt6__ndk112basic_stringIcNS_11char_traitsIcEENS_9allocatorIcEEE16find_last_not_ofEPKcmm
00000000000d96cc W _ZNKSt6__ndk112basic_stringIcNS_11char_traitsIcEENS_9allocatorIcEEE17find_first_not_ofEPKcmm
00000000000d9b10 W _ZNKSt6__ndk112basic_stringIcNS_11char_traitsIcEENS_9allocatorIcEEE2atEm
00000000000da488 W _ZNKSt6__ndk112basic_stringIcNS_11char_traitsIcEENS_9allocatorIcEEE4copyEPcmm
00000000000dafa8 W _ZNKSt6__ndk112basic_stringIcNS_11char_traitsIcEENS_9allocatorIcEEE4findEPKcmm
00000000000da5c4 W _ZNKSt6__ndk112basic_stringIcNS_11char_traitsIcEENS_9allocatorIcEEE4findEcm
00000000000d92ec W _ZNKSt6__ndk112basic_stringIcNS_11char_traitsIcEENS_9allocatorIcEEE5rfindEPKcmm
00000000000daa64 W _ZNKSt6__ndk112basic_stringIcNS_11char_traitsIcEENS_9allocatorIcEEE5rfindEcm
00000000000dad18 W _ZNKSt6__ndk112basic_stringIcNS_11char_traitsIcEENS_9allocatorIcEEE7compareEPKc
00000000000dae58 W _ZNKSt6__ndk112basic_stringIcNS_11char_traitsIcEENS_9allocatorIcEEE7compareEmmPKc
00000000000dadc0 W _ZNKSt6__ndk112basic_stringIcNS_11char_traitsIcEENS_9allocatorIcEEE7compareEmmPKcm
00000000000db070 W _ZNKSt6__ndk112basic_stringIcNS_11char_traitsIcEENS_9allocatorIcEEE7compareEmmRKS5_mm
00000000000dce24 W _ZNKSt6__ndk112basic_stringIwNS_11char_traitsIwEENS_9allocatorIwEEE12find_last_ofEPKwmm
00000000000dc3a0 W _ZNKSt6__ndk112basic_stringIwNS_11char_traitsIwEENS_9allocatorIwEEE13find_first_ofEPKwmm
00000000000dbcb0 W _ZNKSt6__ndk112basic_stringIwNS_11char_traitsIwEENS_9allocatorIwEEE16find_last_not_ofEPKwmm
00000000000dbd78 W _ZNKSt6__ndk112basic_stringIwNS_11char_traitsIwEENS_9allocatorIwEEE17find_first_not_ofEPKwmm
00000000000dc230 W _ZNKSt6__ndk112basic_stringIwNS_11char_traitsIwEENS_9allocatorIwEEE2atEm
00000000000dcb0c W _ZNKSt6__ndk112basic_stringIwNS_11char_traitsIwEENS_9allocatorIwEEE4copyEPwmm
00000000000dd8c4 W _ZNKSt6__ndk112basic_stringIwNS_11char_traitsIwEENS_9allocatorIwEEE4findEPKwmm
00000000000dcc6c W _ZNKSt6__ndk112basic_stringIwNS_11char_traitsIwEENS_9allocatorIwEEE4findEwm
00000000000db93c W _ZNKSt6__ndk112basic_stringIwNS_11char_traitsIwEENS_9allocatorIwEEE5rfindEPKwmm
00000000000dd1ac W _ZNKSt6__ndk112basic_stringIwNS_11char_traitsIwEENS_9allocatorIwEEE5rfindEwm
00000000000dd580 W _ZNKSt6__ndk112basic_stringIwNS_11char_traitsIwEENS_9allocatorIwEEE7compareEPKw
00000000000dd6c8 W _ZNKSt6__ndk112basic_stringIwNS_11char_traitsIwEENS_9allocatorIwEEE7compareEmmPKw
00000000000dd62c W _ZNKSt6__ndk112basic_stringIwNS_11char_traitsIwEENS_9allocatorIwEEE7compareEmmPKwm
00000000000dd99c W _ZNKSt6__ndk112basic_stringIwNS_11char_traitsIwEENS_9allocatorIwEEE7compareEmmRKS5_mm
0000000000116dd0 T _ZNKSt6__ndk112ctype_bynameIcE10do_tolowerEPcPKc
0000000000116da8 T _ZNKSt6__ndk112ctype_bynameIcE10do_tolowerEc
0000000000116d4c T _ZNKSt6__ndk112ctype_bynameIcE10do_toupperEPcPKc
0000000000116d24 T _ZNKSt6__ndk112ctype_bynameIcE10do_toupperEc
0000000000117304 T _ZNKSt6__ndk112ctype_bynameIwE10do_scan_isEmPKwS3_
00000000001175e8 T _ZNKSt6__ndk112ctype_bynameIwE10do_tolowerEPwPKw
00000000001175d4 T _ZNKSt6__ndk112ctype_bynameIwE10do_tolowerEw
0000000000117578 T _ZNKSt6__ndk112ctype_bynameIwE10do_toupperEPwPKw
0000000000117564 T _ZNKSt6__ndk112ctype_bynameIwE10do_toupperEw
0000000000117434 T _ZNKSt6__ndk112ctype_bynameIwE11do_scan_notEmPKwS3_
0000000000117168 T _ZNKSt6__ndk112ctype_bynameIwE5do_isEPKwS3_Pm
0000000000117000 T _ZNKSt6__ndk112ctype_bynameIwE5do_isEmw
00000000001176b0 T _ZNKSt6__ndk112ctype_bynameIwE8do_widenEPKcS3_Pw
0000000000117644 T _ZNKSt6__ndk112ctype_bynameIwE8do_widenEc
00000000001177dc T _ZNKSt6__ndk112ctype_bynameIwE9do_narrowEPKwS3_cPc
0000000000117760 T _ZNKSt6__ndk112ctype_bynameIwE9do_narrowEwc
0000000000128638 T _ZNKSt6__ndk112strstreambuf6pcountEv
00000000000e2e80 T _ZNKSt6__ndk113random_device7entropyEv
0000000000119e78 T _ZNKSt6__ndk114__codecvt_utf8IDiE10do_unshiftER9mbstate_tPcS4_RS4_
0000000000119e88 T _ZNKSt6__ndk114__codecvt_utf8IDiE11do_encodingEv
0000000000119ec0 T _ZNKSt6__ndk114__codecvt_utf8IDiE13do_max_lengthEv
0000000000119e94 T _ZNKSt6__ndk114__codecvt_utf8IDiE16do_always_noconvEv
0000000000119e08 T _ZNKSt6__ndk114__codecvt_utf8IDiE5do_inER9mbstate_tPKcS5_RS5_PDiS7_RS7_
0000000000119d98 T _ZNKSt6__ndk114__codecvt_utf8IDiE6do_outER9mbstate_tPKDiS5_RS5_PcS7_RS7_
0000000000119ea0 T _ZNKSt6__ndk114__codecvt_utf8IDiE9do_lengthER9mbstate_tPKcS5_m
0000000000119bd8 T _ZNKSt6__ndk114__codecvt_utf8IDsE10do_unshiftER9mbstate_tPcS4_RS4_
0000000000119be8 T _ZNKSt6__ndk114__codecvt_utf8IDsE11do_encodingEv
0000000000119d7c T _ZNKSt6__ndk114__codecvt_utf8IDsE13do_max_lengthEv
0000000000119bf4 T _ZNKSt6__ndk114__codecvt_utf8IDsE16do_always_noconvEv
00000000001199fc T _ZNKSt6__ndk114__codecvt_utf8IDsE5do_inER9mbstate_tPKcS5_RS5_PDsS7_RS7_
00000000001198d8 T _ZNKSt6__ndk114__codecvt_utf8IDsE6do_outER9mbstate_tPKDsS5_RS5_PcS7_RS7_
0000000000119c00 T _ZNKSt6__ndk114__codecvt_utf8IDsE9do_lengthER9mbstate_tPKcS5_m
0000000000119874 T _ZNKSt6__ndk114__codecvt_utf8IwE10do_unshiftER9mbstate_tPcS4_RS4_
0000000000119884 T _ZNKSt6__ndk114__codecvt_utf8IwE11do_encodingEv
00000000001198bc T _ZNKSt6__ndk114__codecvt_utf8IwE13do_max_lengthEv
0000000000119890 T _ZNKSt6__ndk114__codecvt_utf8IwE16do_always_noconvEv
0000000000119804 T _ZNKSt6__ndk114__codecvt_utf8IwE5do_inER9mbstate_tPKcS5_RS5_PwS7_RS7_
0000000000119794 T _ZNKSt6__ndk114__codecvt_utf8IwE6do_outER9mbstate_tPKwS5_RS5_PcS7_RS7_
000000000011989c T _ZNKSt6__ndk114__codecvt_utf8IwE9do_lengthER9mbstate_tPKcS5_m
0000000000115450 T _ZNKSt6__ndk114collate_bynameIcE10do_compareEPKcS3_S3_S3_
000000000011560c T _ZNKSt6__ndk114collate_bynameIcE12do_transformEPKcS3_
0000000000115a04 T _ZNKSt6__ndk114collate_bynameIwE10do_compareEPKwS3_S3_S3_
0000000000115bec T _ZNKSt6__ndk114collate_bynameIwE12do_transformEPKwS3_
00000000000e1440 T _ZNKSt6__ndk114error_category10equivalentERKNS_10error_codeEi
00000000000e13fc T _ZNKSt6__ndk114error_category10equivalentEiRKNS_15error_conditionE
00000000000e13e8 T _ZNKSt6__ndk114error_category23default_error_conditionEi
000000000011aba0 T _ZNKSt6__ndk115__codecvt_utf16IDiLb0EE10do_unshiftER9mbstate_tPcS4_RS4_
000000000011abb0 T _ZNKSt6__ndk115__codecvt_utf16IDiLb0EE11do_encodingEv
000000000011acbc T _ZNKSt6__ndk115__codecvt_utf16IDiLb0EE13do_max_lengthEv
000000000011abbc T _ZNKSt6__ndk115__codecvt_utf16IDiLb0EE16do_always_noconvEv
000000000011aa94 T _ZNKSt6__ndk115__codecvt_utf16IDiLb0EE5do_inER9mbstate_tPKcS5_RS5_PDiS7_RS7_
000000000011a9a0 T _ZNKSt6__ndk115__codecvt_utf16IDiLb0EE6do_outER9mbstate_tPKDiS5_RS5_PcS7_RS7_
000000000011abc8 T _ZNKSt6__ndk115__codecvt_utf16IDiLb0EE9do_lengthER9mbstate_tPKcS5_m
000000000011aed4 T _ZNKSt6__ndk115__codecvt_utf16IDiLb1EE10do_unshiftER9mbstate_tPcS4_RS4_
000000000011aee4 T _ZNKSt6__ndk115__codecvt_utf16IDiLb1EE11do_encodingEv
000000000011aff0 T _ZNKSt6__ndk115__codecvt_utf16IDiLb1EE13do_max_lengthEv
000000000011aef0 T _ZNKSt6__ndk115__codecvt_utf16IDiLb1EE16do_always_noconvEv
000000000011adbc T _ZNKSt6__ndk115__codecvt_utf16IDiLb1EE5do_inER9mbstate_tPKcS5_RS5_PDiS7_RS7_
000000000011acd8 T _ZNKSt6__ndk115__codecvt_utf16IDiLb1EE6do_outER9mbstate_tPKDiS5_RS5_PcS7_RS7_
000000000011aefc T _ZNKSt6__ndk115__codecvt_utf16IDiLb1EE9do_lengthER9mbstate_tPKcS5_m
000000000011a68c T _ZNKSt6__ndk115__codecvt_utf16IDsLb0EE10do_unshiftER9mbstate_tPcS4_RS4_
000000000011a69c T _ZNKSt6__ndk115__codecvt_utf16IDsLb0EE11do_encodingEv
000000000011a750 T _ZNKSt6__ndk115__codecvt_utf16IDsLb0EE13do_max_lengthEv
000000000011a6a8 T _ZNKSt6__ndk115__codecvt_utf16IDsLb0EE16do_always_noconvEv
000000000011a5f8 T _ZNKSt6__ndk115__codecvt_utf16IDsLb0EE5do_inER9mbstate_tPKcS5_RS5_PDsS7_RS7_
000000000011a548 T _ZNKSt6__ndk115__codecvt_utf16IDsLb0EE6do_outER9mbstate_tPKDsS5_RS5_PcS7_RS7_
000000000011a6b4 T _ZNKSt6__ndk115__codecvt_utf16IDsLb0EE9do_lengthER9mbstate_tPKcS5_m
000000000011a8c0 T _ZNKSt6__ndk115__codecvt_utf16IDsLb1EE10do_unshiftER9mbstate_tPcS4_RS4_
000000000011a8d0 T _ZNKSt6__ndk115__codecvt_utf16IDsLb1EE11do_encodingEv
000000000011a984 T _ZNKSt6__ndk115__codecvt_utf16IDsLb1EE13do_max_lengthEv
000000000011a8dc T _ZNKSt6__ndk115__codecvt_utf16IDsLb1EE16do_always_noconvEv
000000000011a81c T _ZNKSt6__ndk115__codecvt_utf16IDsLb1EE5do_inER9mbstate_tPKcS5_RS5_PDsS7_RS7_
000000000011a76c T _ZNKSt6__ndk115__codecvt_utf16IDsLb1EE6do_outER9mbstate_tPKDsS5_RS5_PcS7_RS7_
000000000011a8e8 T _ZNKSt6__ndk115__codecvt_utf16IDsLb1EE9do_lengthER9mbstate_tPKcS5_m
000000000011a0dc T _ZNKSt6__ndk115__codecvt_utf16IwLb0EE10do_unshiftER9mbstate_tPcS4_RS4_
000000000011a0ec T _ZNKSt6__ndk115__codecvt_utf16IwLb0EE11do_encodingEv
000000000011a1f8 T _ZNKSt6__ndk115__codecvt_utf16IwLb0EE13do_max_lengthEv
000000000011a0f8 T _ZNKSt6__ndk115__codecvt_utf16IwLb0EE16do_always_noconvEv
0000000000119fd0 T _ZNKSt6__ndk115__codecvt_utf16IwLb0EE5do_inER9mbstate_tPKcS5_RS5_PwS7_RS7_
0000000000119edc T _ZNKSt6__ndk115__codecvt_utf16IwLb0EE6do_outER9mbstate_tPKwS5_RS5_PcS7_RS7_
000000000011a104 T _ZNKSt6__ndk115__codecvt_utf16IwLb0EE9do_lengthER9mbstate_tPKcS5_m
000000000011a410 T _ZNKSt6__ndk115__codecvt_utf16IwLb1EE10do_unshiftER9mbstate_tPcS4_RS4_
000000000011a420 T _ZNKSt6__ndk115__codecvt_utf16IwLb1EE11do_encodingEv
000000000011a52c T _ZNKSt6__ndk115__codecvt_utf16IwLb1EE13do_max_lengthEv
000000000011a42c T _ZNKSt6__ndk115__codecvt_utf16IwLb1EE16do_always_noconvEv
000000000011a2f8 T _ZNKSt6__ndk115__codecvt_utf16IwLb1EE5do_inER9mbstate_tPKcS5_RS5_PwS7_RS7_
000000000011a214 T _ZNKSt6__ndk115__codecvt_utf16IwLb1EE6do_outER9mbstate_tPKwS5_RS5_PcS7_RS7_
000000000011a438 T _ZNKSt6__ndk115__codecvt_utf16IwLb1EE9do_lengthER9mbstate_tPKcS5_m
00000000000e3d58 W _ZNKSt6__ndk115basic_streambufIcNS_11char_traitsIcEEE6getlocEv
00000000000e9020 W _ZNKSt6__ndk115basic_streambufIwNS_11char_traitsIwEEE6getlocEv
00000000000ee700 W _ZNKSt6__ndk115basic_stringbufIcNS_11char_traitsIcEENS_9allocatorIcEEE3strEv
00000000000e1850 T _ZNKSt6__ndk115error_condition7messageEv
0000000000104d08 W _ZNKSt6__ndk117moneypunct_bynameIcLb0EE11do_groupingEv
0000000000104fd0 W _ZNKSt6__ndk117moneypunct_bynameIcLb0EE13do_neg_formatEv
0000000000104fc4 W _ZNKSt6__ndk117moneypunct_bynameIcLb0EE13do_pos_formatEv
0000000000104db4 W _ZNKSt6__ndk117moneypunct_bynameIcLb0EE14do_curr_symbolEv
0000000000104fb8 W _ZNKSt6__ndk117moneypunct_bynameIcLb0EE14do_frac_digitsEv
0000000000104cf0 W _ZNKSt6__ndk117moneypunct_bynameIcLb0EE16do_decimal_pointEv
0000000000104f0c W _ZNKSt6__ndk117moneypunct_bynameIcLb0EE16do_negative_signEv
0000000000104e60 W _ZNKSt6__ndk117moneypunct_bynameIcLb0EE16do_positive_signEv
0000000000104cfc W _ZNKSt6__ndk117moneypunct_bynameIcLb0EE16do_thousands_sepEv
0000000000104ff4 W _ZNKSt6__ndk117moneypunct_bynameIcLb1EE11do_groupingEv
00000000001052bc W _ZNKSt6__ndk117moneypunct_bynameIcLb1EE13do_neg_formatEv
00000000001052b0 W _ZNKSt6__ndk117moneypunct_bynameIcLb1EE13do_pos_formatEv
00000000001050a0 W _ZNKSt6__ndk117moneypunct_bynameIcLb1EE14do_curr_symbolEv
00000000001052a4 W _ZNKSt6__ndk117moneypunct_bynameIcLb1EE14do_frac_digitsEv
0000000000104fdc W _ZNKSt6__ndk117moneypunct_bynameIcLb1EE16do_decimal_pointEv
00000000001051f8 W _ZNKSt6__ndk117moneypunct_bynameIcLb1EE16do_negative_signEv
000000000010514c W _ZNKSt6__ndk117moneypunct_bynameIcLb1EE16do_positive_signEv
0000000000104fe8 W _ZNKSt6__ndk117moneypunct_bynameIcLb1EE16do_thousands_sepEv
00000000001052e0 W _ZNKSt6__ndk117moneypunct_bynameIwLb0EE11do_groupingEv
00000000001055fc W _ZNKSt6__ndk117moneypunct_bynameIwLb0EE13do_neg_formatEv
00000000001055f0 W _ZNKSt6__ndk117moneypunct_bynameIwLb0EE13do_pos_formatEv
000000000010538c W _ZNKSt6__ndk117moneypunct_bynameIwLb0EE14do_curr_symbolEv
00000000001055e4 W _ZNKSt6__ndk117moneypunct_bynameIwLb0EE14do_frac_digitsEv
00000000001052c8 W _ZNKSt6__ndk117moneypunct_bynameIwLb0EE16do_decimal_pointEv
000000000010551c W _ZNKSt6__ndk117moneypunct_bynameIwLb0EE16do_negative_signEv
0000000000105454 W _ZNKSt6__ndk117moneypunct_bynameIwLb0EE16do_positive_signEv
00000000001052d4 W _ZNKSt6__ndk117moneypunct_bynameIwLb0EE16do_thousands_sepEv
0000000000105620 W _ZNKSt6__ndk117moneypunct_bynameIwLb1EE11do_groupingEv
000000000010593c W _ZNKSt6__ndk117moneypunct_bynameIwLb1EE13do_neg_formatEv
0000000000105930 W _ZNKSt6__ndk117moneypunct_bynameIwLb1EE13do_pos_formatEv
00000000001056cc W _ZNKSt6__ndk117moneypunct_bynameIwLb1EE14do_curr_symbolEv
0000000000105924 W _ZNKSt6__ndk117moneypunct_bynameIwLb1EE14do_frac_digitsEv
0000000000105608 W _ZNKSt6__ndk117moneypunct_bynameIwLb1EE16do_decimal_pointEv
000000000010585c W _ZNKSt6__ndk117moneypunct_bynameIwLb1EE16do_negative_signEv
0000000000105794 W _ZNKSt6__ndk117moneypunct_bynameIwLb1EE16do_positive_signEv
0000000000105614 W _ZNKSt6__ndk117moneypunct_bynameIwLb1EE16do_thousands_sepEv
00000000001226d4 T _ZNKSt6__ndk118__time_get_storageIcE15__do_date_orderEv
000000000012294c T _ZNKSt6__ndk118__time_get_storageIwE15__do_date_orderEv
00000000000d3a84 T _ZNKSt6__ndk119__shared_weak_count13__get_deleterERKSt9type_info
000000000011b7f4 T _ZNKSt6__ndk120__codecvt_utf8_utf16IDiE10do_unshiftER9mbstate_tPcS4_RS4_
000000000011b804 T _ZNKSt6__ndk120__codecvt_utf8_utf16IDiE11do_encodingEv
000000000011b83c T _ZNKSt6__ndk120__codecvt_utf8_utf16IDiE13do_max_lengthEv
000000000011b810 T _ZNKSt6__ndk120__codecvt_utf8_utf16IDiE16do_always_noconvEv
000000000011b784 T _ZNKSt6__ndk120__codecvt_utf8_utf16IDiE5do_inER9mbstate_tPKcS5_RS5_PDiS7_RS7_
000000000011b714 T _ZNKSt6__ndk120__codecvt_utf8_utf16IDiE6do_outER9mbstate_tPKDiS5_RS5_PcS7_RS7_
000000000011b81c T _ZNKSt6__ndk120__codecvt_utf8_utf16IDiE9do_lengthER9mbstate_tPKcS5_m
000000000011b6b0 T _ZNKSt6__ndk120__codecvt_utf8_utf16IDsE10do_unshiftER9mbstate_tPcS4_RS4_
000000000011b6c0 T _ZNKSt6__ndk120__codecvt_utf8_utf16IDsE11do_encodingEv
000000000011b6f8 T _ZNKSt6__ndk120__codecvt_utf8_utf16IDsE13do_max_lengthEv
000000000011b6cc T _ZNKSt6__ndk120__codecvt_utf8_utf16IDsE16do_always_noconvEv
000000000011b640 T _ZNKSt6__ndk120__codecvt_utf8_utf16IDsE5do_inER9mbstate_tPKcS5_RS5_PDsS7_RS7_
000000000011b5d0 T _ZNKSt6__ndk120__codecvt_utf8_utf16IDsE6do_outER9mbstate_tPKDsS5_RS5_PcS7_RS7_
000000000011b6d8 T _ZNKSt6__ndk120__codecvt_utf8_utf16IDsE9do_lengthER9mbstate_tPKcS5_m
000000000011b56c T _ZNKSt6__ndk120__codecvt_utf8_utf16IwE10do_unshiftER9mbstate_tPcS4_RS4_
000000000011b57c T _ZNKSt6__ndk120__codecvt_utf8_utf16IwE11do_encodingEv
000000000011b5b4 T _ZNKSt6__ndk120__codecvt_utf8_utf16IwE13do_max_lengthEv
000000000011b588 T _ZNKSt6__ndk120__codecvt_utf8_utf16IwE16do_always_noconvEv
000000000011b29c T _ZNKSt6__ndk120__codecvt_utf8_utf16IwE5do_inER9mbstate_tPKcS5_RS5_PwS7_RS7_
000000000011b00c T _ZNKSt6__ndk120__codecvt_utf8_utf16IwE6do_outER9mbstate_tPKwS5_RS5_PcS7_RS7_
000000000011b594 T _ZNKSt6__ndk120__codecvt_utf8_utf16IwE9do_lengthER9mbstate_tPKcS5_m
000000000011ea0c T _ZNKSt6__ndk120__time_get_c_storageIcE3__XEv
000000000011eb6c T _ZNKSt6__ndk120__time_get_c_storageIcE3__cEv
000000000011eccc T _ZNKSt6__ndk120__time_get_c_storageIcE3__rEv
000000000011e8ac T _ZNKSt6__ndk120__time_get_c_storageIcE3__xEv
000000000011e58c T _ZNKSt6__ndk120__time_get_c_storageIcE7__am_pmEv
000000000011c650 T _ZNKSt6__ndk120__time_get_c_storageIcE7__weeksEv
000000000011d2b8 T _ZNKSt6__ndk120__time_get_c_storageIcE8__monthsEv
000000000011eabc T _ZNKSt6__ndk120__time_get_c_storageIwE3__XEv
000000000011ec1c T _ZNKSt6__ndk120__time_get_c_storageIwE3__cEv
000000000011ed7c T _ZNKSt6__ndk120__time_get_c_storageIwE3__rEv
000000000011e95c T _ZNKSt6__ndk120__time_get_c_storageIwE3__xEv
000000000011e724 T _ZNKSt6__ndk120__time_get_c_storageIwE7__am_pmEv
000000000011cba4 T _ZNKSt6__ndk120__time_get_c_storageIwE7__weeksEv
000000000011db20 T _ZNKSt6__ndk120__time_get_c_storageIwE8__monthsEv
00000000000e2c14 T _ZNKSt6__ndk120__vector_base_commonILb1EE20__throw_length_errorEv
00000000000e2c2c T _ZNKSt6__ndk120__vector_base_commonILb1EE20__throw_out_of_rangeEv
00000000000de06c T _ZNKSt6__ndk121__basic_string_commonILb1EE20__throw_length_errorEv
00000000000de0d8 T _ZNKSt6__ndk121__basic_string_commonILb1EE20__throw_out_of_rangeEv
0000000000127fe0 T _ZNKSt6__ndk123__match_any_but_newlineIcE6__execERNS_7__stateIcEE
000000000012802c T _ZNKSt6__ndk123__match_any_but_newlineIwE6__execERNS_7__stateIwEE
00000000000d429c T _ZNKSt6__ndk13pmr26synchronized_pool_resource11do_is_equalERKNS0_15memory_resourceE
00000000000d3d5c T _ZNKSt6__ndk13pmr28unsynchronized_pool_resource12__pool_indexEmm
00000000000d3d3c T _ZNKSt6__ndk13pmr28unsynchronized_pool_resource17__pool_block_sizeEi
00000000000d3d50 T _ZNKSt6__ndk13pmr28unsynchronized_pool_resource22__log2_pool_block_sizeEi
00000000000d3e54 T _ZNKSt6__ndk13pmr28unsynchronized_pool_resource7optionsEv
0000000000132358 T _ZNKSt6__ndk14__fs10filesystem18directory_iterator13__dereferenceEv
0000000000132b44 T _ZNKSt6__ndk14__fs10filesystem28recursive_directory_iterator13__dereferenceEv
0000000000132b30 T _ZNKSt6__ndk14__fs10filesystem28recursive_directory_iterator5depthEv
0000000000132b20 T _ZNKSt6__ndk14__fs10filesystem28recursive_directory_iterator7optionsEv
000000000012e930 T _ZNKSt6__ndk14__fs10filesystem4path10__filenameEv
000000000012eb1c T _ZNKSt6__ndk14__fs10filesystem4path11__extensionEv
000000000012e5b0 T _ZNKSt6__ndk14__fs10filesystem4path11__root_nameEv
000000000012e850 T _ZNKSt6__ndk14__fs10filesystem4path13__parent_pathEv
000000000012e7a8 T _ZNKSt6__ndk14__fs10filesystem4path15__relative_pathEv
000000000012e6c0 T _ZNKSt6__ndk14__fs10filesystem4path15__root_path_rawEv
000000000012e614 T _ZNKSt6__ndk14__fs10filesystem4path16__root_directoryEv
000000000012dc9c T _ZNKSt6__ndk14__fs10filesystem4path16lexically_normalEv
000000000012ebec T _ZNKSt6__ndk14__fs10filesystem4path18lexically_relativeERKS2_
000000000012f710 T _ZNKSt6__ndk14__fs10filesystem4path3endEv
000000000012f5b8 T _ZNKSt6__ndk14__fs10filesystem4path5beginEv
000000000012ea5c T _ZNKSt6__ndk14__fs10filesystem4path6__stemEv
000000000012f164 T _ZNKSt6__ndk14__fs10filesystem4path9__compareENS_17basic_string_viewIcNS_11char_traitsIcEEEE
0000000000116854 T _ZNKSt6__ndk15ctypeIcE10do_tolowerEPcPKc
00000000001167a8 T _ZNKSt6__ndk15ctypeIcE10do_tolowerEc
00000000001166b8 T _ZNKSt6__ndk15ctypeIcE10do_toupperEPcPKc
000000000011660c T _ZNKSt6__ndk15ctypeIcE10do_toupperEc
0000000000116950 T _ZNKSt6__ndk15ctypeIcE8do_widenEPKcS3_Pc
0000000000116944 T _ZNKSt6__ndk15ctypeIcE8do_widenEc
0000000000116a38 T _ZNKSt6__ndk15ctypeIcE9do_narrowEPKcS3_cPc
0000000000116a24 T _ZNKSt6__ndk15ctypeIcE9do_narrowEcc
0000000000115eb8 T _ZNKSt6__ndk15ctypeIwE10do_scan_isEmPKwS3_
000000000011619c T _ZNKSt6__ndk15ctypeIwE10do_tolowerEPwPKw
00000000001160ec T _ZNKSt6__ndk15ctypeIwE10do_tolowerEw
0000000000115ff8 T _ZNKSt6__ndk15ctypeIwE10do_toupperEPwPKw
0000000000115f48 T _ZNKSt6__ndk15ctypeIwE10do_toupperEw
0000000000115f04 T _ZNKSt6__ndk15ctypeIwE11do_scan_notEmPKwS3_
0000000000115e60 T _ZNKSt6__ndk15ctypeIwE5do_isEPKwS3_Pm
0000000000115e24 T _ZNKSt6__ndk15ctypeIwE5do_isEmw
000000000011629c T _ZNKSt6__ndk15ctypeIwE8do_widenEPKcS3_Pw
0000000000116290 T _ZNKSt6__ndk15ctypeIwE8do_widenEc
00000000001163d0 T _ZNKSt6__ndk15ctypeIwE9do_narrowEPKwS3_cPc
00000000001163c0 T _ZNKSt6__ndk15ctypeIwE9do_narrowEwc
0000000000114a8c T _ZNKSt6__ndk16locale4nameEv
0000000000114e68 T _ZNKSt6__ndk16locale9has_facetERNS0_2idE
0000000000114f84 T _ZNKSt6__ndk16locale9use_facetERNS0_2idE
0000000000115014 T _ZNKSt6__ndk16localeeqERKS0_
0000000000119744 T _ZNKSt6__ndk17codecvtIDiDu9mbstate_tE10do_unshiftERS1_PDuS4_RS4_
0000000000119754 T _ZNKSt6__ndk17codecvtIDiDu9mbstate_tE11do_encodingEv
0000000000119788 T _ZNKSt6__ndk17codecvtIDiDu9mbstate_tE13do_max_lengthEv
0000000000119760 T _ZNKSt6__ndk17codecvtIDiDu9mbstate_tE16do_always_noconvEv
00000000001196dc T _ZNKSt6__ndk17codecvtIDiDu9mbstate_tE5do_inERS1_PKDuS5_RS5_PDiS7_RS7_
0000000000119598 T _ZNKSt6__ndk17codecvtIDiDu9mbstate_tE6do_outERS1_PKDiS5_RS5_PDuS7_RS7_
000000000011976c T _ZNKSt6__ndk17codecvtIDiDu9mbstate_tE9do_lengthERS1_PKDuS5_m
000000000011930c T _ZNKSt6__ndk17codecvtIDic9mbstate_tE10do_unshiftERS1_PcS4_RS4_
000000000011931c T _ZNKSt6__ndk17codecvtIDic9mbstate_tE11do_encodingEv
0000000000119560 T _ZNKSt6__ndk17codecvtIDic9mbstate_tE13do_max_lengthEv
0000000000119328 T _ZNKSt6__ndk17codecvtIDic9mbstate_tE16do_always_noconvEv
0000000000119088 T _ZNKSt6__ndk17codecvtIDic9mbstate_tE5do_inERS1_PKcS5_RS5_PDiS7_RS7_
0000000000118db0 T _ZNKSt6__ndk17codecvtIDic9mbstate_tE6do_outERS1_PKDiS5_RS5_PcS7_RS7_
0000000000119334 T _ZNKSt6__ndk17codecvtIDic9mbstate_tE9do_lengthERS1_PKcS5_m
0000000000118d34 T _ZNKSt6__ndk17codecvtIDsDu9mbstate_tE10do_unshiftERS1_PDuS4_RS4_
0000000000118d44 T _ZNKSt6__ndk17codecvtIDsDu9mbstate_tE11do_encodingEv
0000000000118d78 T _ZNKSt6__ndk17codecvtIDsDu9mbstate_tE13do_max_lengthEv
0000000000118d50 T _ZNKSt6__ndk17codecvtIDsDu9mbstate_tE16do_always_noconvEv
0000000000118ccc T _ZNKSt6__ndk17codecvtIDsDu9mbstate_tE5do_inERS1_PKDuS5_RS5_PDsS7_RS7_
0000000000118c64 T _ZNKSt6__ndk17codecvtIDsDu9mbstate_tE6do_outERS1_PKDsS5_RS5_PDuS7_RS7_
0000000000118d5c T _ZNKSt6__ndk17codecvtIDsDu9mbstate_tE9do_lengthERS1_PKDuS5_m
00000000001189dc T _ZNKSt6__ndk17codecvtIDsc9mbstate_tE10do_unshiftERS1_PcS4_RS4_
00000000001189ec T _ZNKSt6__ndk17codecvtIDsc9mbstate_tE11do_encodingEv
0000000000118c2c T _ZNKSt6__ndk17codecvtIDsc9mbstate_tE13do_max_lengthEv
00000000001189f8 T _ZNKSt6__ndk17codecvtIDsc9mbstate_tE16do_always_noconvEv
0000000000118710 T _ZNKSt6__ndk17codecvtIDsc9mbstate_tE5do_inERS1_PKcS5_RS5_PDsS7_RS7_
0000000000118488 T _ZNKSt6__ndk17codecvtIDsc9mbstate_tE6do_outERS1_PKDsS5_RS5_PcS7_RS7_
0000000000118a04 T _ZNKSt6__ndk17codecvtIDsc9mbstate_tE9do_lengthERS1_PKcS5_m
00000000001178f4 T _ZNKSt6__ndk17codecvtIcc9mbstate_tE10do_unshiftERS1_PcS4_RS4_
0000000000117904 T _ZNKSt6__ndk17codecvtIcc9mbstate_tE11do_encodingEv
0000000000117930 T _ZNKSt6__ndk17codecvtIcc9mbstate_tE13do_max_lengthEv
0000000000117910 T _ZNKSt6__ndk17codecvtIcc9mbstate_tE16do_always_noconvEv
00000000001178e0 T _ZNKSt6__ndk17codecvtIcc9mbstate_tE5do_inERS1_PKcS5_RS5_PcS7_RS7_
00000000001178cc T _ZNKSt6__ndk17codecvtIcc9mbstate_tE6do_outERS1_PKcS5_RS5_PcS7_RS7_
000000000011791c T _ZNKSt6__ndk17codecvtIcc9mbstate_tE9do_lengthERS1_PKcS5_m
00000000001180cc T _ZNKSt6__ndk17codecvtIwc9mbstate_tE10do_unshiftERS1_PcS4_RS4_
00000000001181d8 T _ZNKSt6__ndk17codecvtIwc9mbstate_tE11do_encodingEv
00000000001183d0 T _ZNKSt6__ndk17codecvtIwc9mbstate_tE13do_max_lengthEv
00000000001182bc T _ZNKSt6__ndk17codecvtIwc9mbstate_tE16do_always_noconvEv
0000000000117e00 T _ZNKSt6__ndk17codecvtIwc9mbstate_tE5do_inERS1_PKcS5_RS5_PwS7_RS7_
0000000000117b0c T _ZNKSt6__ndk17codecvtIwc9mbstate_tE6do_outERS1_PKwS5_RS5_PcS7_RS7_
00000000001182c8 T _ZNKSt6__ndk17codecvtIwc9mbstate_tE9do_lengthERS1_PKcS5_m
00000000000f24f8 W _ZNKSt6__ndk17collateIcE10do_compareEPKcS3_S3_S3_
00000000000f255c W _ZNKSt6__ndk17collateIcE12do_transformEPKcS3_
00000000000f2604 W _ZNKSt6__ndk17collateIcE7do_hashEPKcS3_
00000000000f2670 W _ZNKSt6__ndk17collateIwE10do_compareEPKwS3_S3_S3_
00000000000f26c8 W _ZNKSt6__ndk17collateIwE12do_transformEPKwS3_
00000000000f2784 W _ZNKSt6__ndk17collateIwE7do_hashEPKwS3_
00000000000f6188 W _ZNKSt6__ndk17num_getIcNS_19istreambuf_iteratorIcNS_11char_traitsIcEEEEE6do_getES4_S4_RNS_8ios_baseERjRPv
00000000000f27bc W _ZNKSt6__ndk17num_getIcNS_19istreambuf_iteratorIcNS_11char_traitsIcEEEEE6do_getES4_S4_RNS_8ios_baseERjRb
00000000000f5670 W _ZNKSt6__ndk17num_getIcNS_19istreambuf_iteratorIcNS_11char_traitsIcEEEEE6do_getES4_S4_RNS_8ios_baseERjRd
00000000000f5bfc W _ZNKSt6__ndk17num_getIcNS_19istreambuf_iteratorIcNS_11char_traitsIcEEEEE6do_getES4_S4_RNS_8ios_baseERjRe
00000000000f50e4 W _ZNKSt6__ndk17num_getIcNS_19istreambuf_iteratorIcNS_11char_traitsIcEEEEE6do_getES4_S4_RNS_8ios_baseERjRf
00000000000f2f0c W _ZNKSt6__ndk17num_getIcNS_19istreambuf_iteratorIcNS_11char_traitsIcEEEEE6do_getES4_S4_RNS_8ios_baseERjRl
00000000000f459c W _ZNKSt6__ndk17num_getIcNS_19istreambuf_iteratorIcNS_11char_traitsIcEEEEE6do_getES4_S4_RNS_8ios_baseERjRm
00000000000f3a54 W _ZNKSt6__ndk17num_getIcNS_19istreambuf_iteratorIcNS_11char_traitsIcEEEEE6do_getES4_S4_RNS_8ios_baseERjRt
00000000000f34b0 W _ZNKSt6__ndk17num_getIcNS_19istreambuf_iteratorIcNS_11char_traitsIcEEEEE6do_getES4_S4_RNS_8ios_baseERjRx
00000000000f4b40 W _ZNKSt6__ndk17num_getIcNS_19istreambuf_iteratorIcNS_11char_traitsIcEEEEE6do_getES4_S4_RNS_8ios_baseERjRy
00000000000f3ff8 W _ZNKSt6__ndk17num_getIcNS_19istreambuf_iteratorIcNS_11char_traitsIcEEEEE6do_getES4_S4_RNS_8ios_baseERjS8_
00000000000fa540 W _ZNKSt6__ndk17num_getIwNS_19istreambuf_iteratorIwNS_11char_traitsIwEEEEE6do_getES4_S4_RNS_8ios_baseERjRPv
00000000000f6b9c W _ZNKSt6__ndk17num_getIwNS_19istreambuf_iteratorIwNS_11char_traitsIwEEEEE6do_getES4_S4_RNS_8ios_baseERjRb
00000000000f9a38 W _ZNKSt6__ndk17num_getIwNS_19istreambuf_iteratorIwNS_11char_traitsIwEEEEE6do_getES4_S4_RNS_8ios_baseERjRd
00000000000f9fbc W _ZNKSt6__ndk17num_getIwNS_19istreambuf_iteratorIwNS_11char_traitsIwEEEEE6do_getES4_S4_RNS_8ios_baseERjRe
00000000000f94b4 W _ZNKSt6__ndk17num_getIwNS_19istreambuf_iteratorIwNS_11char_traitsIwEEEEE6do_getES4_S4_RNS_8ios_baseERjRf
00000000000f72f4 W _ZNKSt6__ndk17num_getIwNS_19istreambuf_iteratorIwNS_11char_traitsIwEEEEE6do_getES4_S4_RNS_8ios_baseERjRl
00000000000f8974 W _ZNKSt6__ndk17num_getIwNS_19istreambuf_iteratorIwNS_11char_traitsIwEEEEE6do_getES4_S4_RNS_8ios_baseERjRm
00000000000f7e34 W _ZNKSt6__ndk17num_getIwNS_19istreambuf_iteratorIwNS_11char_traitsIwEEEEE6do_getES4_S4_RNS_8ios_baseERjRt
00000000000f7894 W _ZNKSt6__ndk17num_getIwNS_19istreambuf_iteratorIwNS_11char_traitsIwEEEEE6do_getES4_S4_RNS_8ios_baseERjRx
00000000000f8f14 W _ZNKSt6__ndk17num_getIwNS_19istreambuf_iteratorIwNS_11char_traitsIwEEEEE6do_getES4_S4_RNS_8ios_baseERjRy
00000000000f83d4 W _ZNKSt6__ndk17num_getIwNS_19istreambuf_iteratorIwNS_11char_traitsIwEEEEE6do_getES4_S4_RNS_8ios_baseERjS8_
00000000000fd1e4 W _ZNKSt6__ndk17num_putIcNS_19ostreambuf_iteratorIcNS_11char_traitsIcEEEEE6do_putES4_RNS_8ios_baseEcPKv
00000000000fbd5c W _ZNKSt6__ndk17num_putIcNS_19ostreambuf_iteratorIcNS_11char_traitsIcEEEEE6do_putES4_RNS_8ios_baseEcb
00000000000fc864 W _ZNKSt6__ndk17num_putIcNS_19ostreambuf_iteratorIcNS_11char_traitsIcEEEEE6do_putES4_RNS_8ios_baseEcd
00000000000fcd28 W _ZNKSt6__ndk17num_putIcNS_19ostreambuf_iteratorIcNS_11char_traitsIcEEEEE6do_putES4_RNS_8ios_baseEce
00000000000fbf5c W _ZNKSt6__ndk17num_putIcNS_19ostreambuf_iteratorIcNS_11char_traitsIcEEEEE6do_putES4_RNS_8ios_baseEcl
00000000000fc3fc W _ZNKSt6__ndk17num_putIcNS_19ostreambuf_iteratorIcNS_11char_traitsIcEEEEE6do_putES4_RNS_8ios_baseEcm
00000000000fc1ac W _ZNKSt6__ndk17num_putIcNS_19ostreambuf_iteratorIcNS_11char_traitsIcEEEEE6do_putES4_RNS_8ios_baseEcx
00000000000fc630 W _ZNKSt6__ndk17num_putIcNS_19ostreambuf_iteratorIcNS_11char_traitsIcEEEEE6do_putES4_RNS_8ios_baseEcy
00000000000feb54 W _ZNKSt6__ndk17num_putIwNS_19ostreambuf_iteratorIwNS_11char_traitsIwEEEEE6do_putES4_RNS_8ios_baseEwPKv
00000000000fd6cc W _ZNKSt6__ndk17num_putIwNS_19ostreambuf_iteratorIwNS_11char_traitsIwEEEEE6do_putES4_RNS_8ios_baseEwb
00000000000fe1d4 W _ZNKSt6__ndk17num_putIwNS_19ostreambuf_iteratorIwNS_11char_traitsIwEEEEE6do_putES4_RNS_8ios_baseEwd
00000000000fe698 W _ZNKSt6__ndk17num_putIwNS_19ostreambuf_iteratorIwNS_11char_traitsIwEEEEE6do_putES4_RNS_8ios_baseEwe
00000000000fd8cc W _ZNKSt6__ndk17num_putIwNS_19ostreambuf_iteratorIwNS_11char_traitsIwEEEEE6do_putES4_RNS_8ios_baseEwl
00000000000fdd6c W _ZNKSt6__ndk17num_putIwNS_19ostreambuf_iteratorIwNS_11char_traitsIwEEEEE6do_putES4_RNS_8ios_baseEwm
00000000000fdb1c W _ZNKSt6__ndk17num_putIwNS_19ostreambuf_iteratorIwNS_11char_traitsIwEEEEE6do_putES4_RNS_8ios_baseEwx
00000000000fdfa0 W _ZNKSt6__ndk17num_putIwNS_19ostreambuf_iteratorIwNS_11char_traitsIwEEEEE6do_putES4_RNS_8ios_baseEwy
00000000000e318c T _ZNKSt6__ndk18ios_base6getlocEv
000000000010bc4c W _ZNKSt6__ndk18messagesIcE6do_getEliiRKNS_12basic_stringIcNS_11char_traitsIcEENS_9allocatorIcEEEE
000000000010bc40 W _ZNKSt6__ndk18messagesIcE7do_openERKNS_12basic_stringIcNS_11char_traitsIcEENS_9allocatorIcEEEERKNS_6localeE
000000000010bcf4 W _ZNKSt6__ndk18messagesIcE8do_closeEl
000000000010bd08 W _ZNKSt6__ndk18messagesIwE6do_getEliiRKNS_12basic_stringIwNS_11char_traitsIwEENS_9allocatorIwEEEE
000000000010bcfc W _ZNKSt6__ndk18messagesIwE7do_openERKNS_12basic_stringIcNS_11char_traitsIcEENS_9allocatorIcEEEERKNS_6localeE
000000000010bdcc W _ZNKSt6__ndk18messagesIwE8do_closeEl
000000000011ba7c T _ZNKSt6__ndk18numpunctIcE11do_groupingEv
000000000011bbd4 T _ZNKSt6__ndk18numpunctIcE11do_truenameEv
000000000011bcc4 T _ZNKSt6__ndk18numpunctIcE12do_falsenameEv
000000000011ba4c T _ZNKSt6__ndk18numpunctIcE16do_decimal_pointEv
000000000011ba64 T _ZNKSt6__ndk18numpunctIcE16do_thousands_sepEv
000000000011bb28 T _ZNKSt6__ndk18numpunctIwE11do_groupingEv
000000000011bbf4 T _ZNKSt6__ndk18numpunctIwE11do_truenameEv
000000000011bce8 T _ZNKSt6__ndk18numpunctIwE12do_falsenameEv
000000000011ba58 T _ZNKSt6__ndk18numpunctIwE16do_decimal_pointEv
000000000011ba70 T _ZNKSt6__ndk18numpunctIwE16do_thousands_sepEv
00000000001016a4 W _ZNKSt6__ndk18time_getIcNS_19istreambuf_iteratorIcNS_11char_traitsIcEEEEE10__get_hourERiRS4_S4_RjRKNS_5ctypeIcEE
0000000000100f44 W _ZNKSt6__ndk18time_getIcNS_19istreambuf_iteratorIcNS_11char_traitsIcEEEEE10__get_yearERiRS4_S4_RjRKNS_5ctypeIcEE
0000000000101ad4 W _ZNKSt6__ndk18time_getIcNS_19istreambuf_iteratorIcNS_11char_traitsIcEEEEE11__get_am_pmERiRS4_S4_RjRKNS_5ctypeIcEE
00000000001017f8 W _ZNKSt6__ndk18time_getIcNS_19istreambuf_iteratorIcNS_11char_traitsIcEEEEE11__get_monthERiRS4_S4_RjRKNS_5ctypeIcEE
0000000000101cc4 W _ZNKSt6__ndk18time_getIcNS_19istreambuf_iteratorIcNS_11char_traitsIcEEEEE11__get_year4ERiRS4_S4_RjRKNS_5ctypeIcEE
0000000000100958 W _ZNKSt6__ndk18time_getIcNS_19istreambuf_iteratorIcNS_11char_traitsIcEEEEE11do_get_dateES4_S4_RNS_8ios_baseERjP2tm
0000000000100914 W _ZNKSt6__ndk18time_getIcNS_19istreambuf_iteratorIcNS_11char_traitsIcEEEEE11do_get_timeES4_S4_RNS_8ios_baseERjP2tm
0000000000100e1c W _ZNKSt6__ndk18time_getIcNS_19istreambuf_iteratorIcNS_11char_traitsIcEEEEE11do_get_yearES4_S4_RNS_8ios_baseERjP2tm
000000000010186c W _ZNKSt6__ndk18time_getIcNS_19istreambuf_iteratorIcNS_11char_traitsIcEEEEE12__get_minuteERiRS4_S4_RjRKNS_5ctypeIcEE
0000000000101be4 W _ZNKSt6__ndk18time_getIcNS_19istreambuf_iteratorIcNS_11char_traitsIcEEEEE12__get_secondERiRS4_S4_RjRKNS_5ctypeIcEE
0000000000101714 W _ZNKSt6__ndk18time_getIcNS_19istreambuf_iteratorIcNS_11char_traitsIcEEEEE13__get_12_hourERiRS4_S4_RjRKNS_5ctypeIcEE
0000000000101d14 W _ZNKSt6__ndk18time_getIcNS_19istreambuf_iteratorIcNS_11char_traitsIcEEEEE13__get_percentERS4_S4_RjRKNS_5ctypeIcEE
0000000000101c54 W _ZNKSt6__ndk18time_getIcNS_19istreambuf_iteratorIcNS_11char_traitsIcEEEEE13__get_weekdayERiRS4_S4_RjRKNS_5ctypeIcEE
0000000000100908 W _ZNKSt6__ndk18time_getIcNS_19istreambuf_iteratorIcNS_11char_traitsIcEEEEE13do_date_orderEv
00000000001009e4 W _ZNKSt6__ndk18time_getIcNS_19istreambuf_iteratorIcNS_11char_traitsIcEEEEE14do_get_weekdayES4_S4_RNS_8ios_baseERjP2tm
0000000000100d64 W _ZNKSt6__ndk18time_getIcNS_19istreambuf_iteratorIcNS_11char_traitsIcEEEEE15__get_monthnameERiRS4_S4_RjRKNS_5ctypeIcEE
0000000000100c04 W _ZNKSt6__ndk18time_getIcNS_19istreambuf_iteratorIcNS_11char_traitsIcEEEEE16do_get_monthnameES4_S4_RNS_8ios_baseERjP2tm
0000000000100b48 W _ZNKSt6__ndk18time_getIcNS_19istreambuf_iteratorIcNS_11char_traitsIcEEEEE17__get_weekdaynameERiRS4_S4_RjRKNS_5ctypeIcEE
00000000001018dc W _ZNKSt6__ndk18time_getIcNS_19istreambuf_iteratorIcNS_11char_traitsIcEEEEE17__get_white_spaceERS4_S4_RjRKNS_5ctypeIcEE
0000000000101788 W _ZNKSt6__ndk18time_getIcNS_19istreambuf_iteratorIcNS_11char_traitsIcEEEEE18__get_day_year_numERiRS4_S4_RjRKNS_5ctypeIcEE
0000000000100418 W _ZNKSt6__ndk18time_getIcNS_19istreambuf_iteratorIcNS_11char_traitsIcEEEEE3getES4_S4_RNS_8ios_baseERjP2tmPKcSC_
0000000000100fac W _ZNKSt6__ndk18time_getIcNS_19istreambuf_iteratorIcNS_11char_traitsIcEEEEE6do_getES4_S4_RNS_8ios_baseERjP2tmcc
0000000000101630 W _ZNKSt6__ndk18time_getIcNS_19istreambuf_iteratorIcNS_11char_traitsIcEEEEE9__get_dayERiRS4_S4_RjRKNS_5ctypeIcEE
000000000010359c W _ZNKSt6__ndk18time_getIwNS_19istreambuf_iteratorIwNS_11char_traitsIwEEEEE10__get_hourERiRS4_S4_RjRKNS_5ctypeIwEE
0000000000102e4c W _ZNKSt6__ndk18time_getIwNS_19istreambuf_iteratorIwNS_11char_traitsIwEEEEE10__get_yearERiRS4_S4_RjRKNS_5ctypeIwEE
0000000000103a08 W _ZNKSt6__ndk18time_getIwNS_19istreambuf_iteratorIwNS_11char_traitsIwEEEEE11__get_am_pmERiRS4_S4_RjRKNS_5ctypeIwEE
00000000001036f0 W _ZNKSt6__ndk18time_getIwNS_19istreambuf_iteratorIwNS_11char_traitsIwEEEEE11__get_monthERiRS4_S4_RjRKNS_5ctypeIwEE
0000000000103bf8 W _ZNKSt6__ndk18time_getIwNS_19istreambuf_iteratorIwNS_11char_traitsIwEEEEE11__get_year4ERiRS4_S4_RjRKNS_5ctypeIwEE
000000000010285c W _ZNKSt6__ndk18time_getIwNS_19istreambuf_iteratorIwNS_11char_traitsIwEEEEE11do_get_dateES4_S4_RNS_8ios_baseERjP2tm
000000000010281c W _ZNKSt6__ndk18time_getIwNS_19istreambuf_iteratorIwNS_11char_traitsIwEEEEE11do_get_timeES4_S4_RNS_8ios_baseERjP2tm
0000000000102d24 W _ZNKSt6__ndk18time_getIwNS_19istreambuf_iteratorIwNS_11char_traitsIwEEEEE11do_get_yearES4_S4_RNS_8ios_baseERjP2tm
0000000000103764 W _ZNKSt6__ndk18time_getIwNS_19istreambuf_iteratorIwNS_11char_traitsIwEEEEE12__get_minuteERiRS4_S4_RjRKNS_5ctypeIwEE
0000000000103b18 W _ZNKSt6__ndk18time_getIwNS_19istreambuf_iteratorIwNS_11char_traitsIwEEEEE12__get_secondERiRS4_S4_RjRKNS_5ctypeIwEE
000000000010360c W _ZNKSt6__ndk18time_getIwNS_19istreambuf_iteratorIwNS_11char_traitsIwEEEEE13__get_12_hourERiRS4_S4_RjRKNS_5ctypeIwEE
0000000000103c48 W _ZNKSt6__ndk18time_getIwNS_19istreambuf_iteratorIwNS_11char_traitsIwEEEEE13__get_percentERS4_S4_RjRKNS_5ctypeIwEE
0000000000103b88 W _ZNKSt6__ndk18time_getIwNS_19istreambuf_iteratorIwNS_11char_traitsIwEEEEE13__get_weekdayERiRS4_S4_RjRKNS_5ctypeIwEE
0000000000102810 W _ZNKSt6__ndk18time_getIwNS_19istreambuf_iteratorIwNS_11char_traitsIwEEEEE13do_date_orderEv
00000000001028ec W _ZNKSt6__ndk18time_getIwNS_19istreambuf_iteratorIwNS_11char_traitsIwEEEEE14do_get_weekdayES4_S4_RNS_8ios_baseERjP2tm
0000000000102c6c W _ZNKSt6__ndk18time_getIwNS_19istreambuf_iteratorIwNS_11char_traitsIwEEEEE15__get_monthnameERiRS4_S4_RjRKNS_5ctypeIwEE
0000000000102b0c W _ZNKSt6__ndk18time_getIwNS_19istreambuf_iteratorIwNS_11char_traitsIwEEEEE16do_get_monthnameES4_S4_RNS_8ios_baseERjP2tm
0000000000102a50 W _ZNKSt6__ndk18time_getIwNS_19istreambuf_iteratorIwNS_11char_traitsIwEEEEE17__get_weekdaynameERiRS4_S4_RjRKNS_5ctypeIwEE
00000000001037d4 W _ZNKSt6__ndk18time_getIwNS_19istreambuf_iteratorIwNS_11char_traitsIwEEEEE17__get_white_spaceERS4_S4_RjRKNS_5ctypeIwEE
0000000000103680 W _ZNKSt6__ndk18time_getIwNS_19istreambuf_iteratorIwNS_11char_traitsIwEEEEE18__get_day_year_numERiRS4_S4_RjRKNS_5ctypeIwEE
00000000001022b8 W _ZNKSt6__ndk18time_getIwNS_19istreambuf_iteratorIwNS_11char_traitsIwEEEEE3getES4_S4_RNS_8ios_baseERjP2tmPKwSC_
0000000000102eb4 W _ZNKSt6__ndk18time_getIwNS_19istreambuf_iteratorIwNS_11char_traitsIwEEEEE6do_getES4_S4_RNS_8ios_baseERjP2tmcc
0000000000103528 W _ZNKSt6__ndk18time_getIwNS_19istreambuf_iteratorIwNS_11char_traitsIwEEEEE9__get_dayERiRS4_S4_RjRKNS_5ctypeIwEE
0000000000104250 W _ZNKSt6__ndk18time_putIcNS_19ostreambuf_iteratorIcNS_11char_traitsIcEEEEE3putES4_RNS_8ios_baseEcPK2tmPKcSC_
00000000001044fc W _ZNKSt6__ndk18time_putIcNS_19ostreambuf_iteratorIcNS_11char_traitsIcEEEEE6do_putES4_RNS_8ios_baseEcPK2tmcc
0000000000104640 W _ZNKSt6__ndk18time_putIwNS_19ostreambuf_iteratorIwNS_11char_traitsIwEEEEE3putES4_RNS_8ios_baseEwPK2tmPKwSC_
00000000001048fc W _ZNKSt6__ndk18time_putIwNS_19ostreambuf_iteratorIwNS_11char_traitsIwEEEEE6do_putES4_RNS_8ios_baseEwPK2tmcc
0000000000107204 W _ZNKSt6__ndk19money_getIcNS_19istreambuf_iteratorIcNS_11char_traitsIcEEEEE6do_getES4_S4_bRNS_8ios_baseERjRNS_12basic_stringIcS3_NS_9allocatorIcEEEE
0000000000105948 W _ZNKSt6__ndk19money_getIcNS_19istreambuf_iteratorIcNS_11char_traitsIcEEEEE6do_getES4_S4_bRNS_8ios_baseERjRe
000000000010936c W _ZNKSt6__ndk19money_getIwNS_19istreambuf_iteratorIwNS_11char_traitsIwEEEEE6do_getES4_S4_bRNS_8ios_baseERjRNS_12basic_stringIwS3_NS_9allocatorIwEEEE
0000000000107ae0 W _ZNKSt6__ndk19money_getIwNS_19istreambuf_iteratorIwNS_11char_traitsIwEEEEE6do_getES4_S4_bRNS_8ios_baseERjRe
000000000010a888 W _ZNKSt6__ndk19money_putIcNS_19ostreambuf_iteratorIcNS_11char_traitsIcEEEEE6do_putES4_bRNS_8ios_baseEcRKNS_12basic_stringIcS3_NS_9allocatorIcEEEE
0000000000109c10 W _ZNKSt6__ndk19money_putIcNS_19ostreambuf_iteratorIcNS_11char_traitsIcEEEEE6do_putES4_bRNS_8ios_baseEce
000000000010b868 W _ZNKSt6__ndk19money_putIwNS_19ostreambuf_iteratorIwNS_11char_traitsIwEEEEE6do_putES4_bRNS_8ios_baseEwRKNS_12basic_stringIwS3_NS_9allocatorIwEEEE
000000000010ac58 W _ZNKSt6__ndk19money_putIwNS_19ostreambuf_iteratorIwNS_11char_traitsIwEEEEE6do_putES4_bRNS_8ios_baseEwe
000000000009dc14 T _ZNKSt8bad_cast4whatEv
000000000009d8b4 T _ZNKSt9bad_alloc4whatEv
000000000009d824 T _ZNKSt9exception4whatEv
000000000009dc24 T _ZNSt10bad_typeidC1Ev
000000000009dc24 T _ZNSt10bad_typeidC2Ev
000000000009dc44 T _ZNSt10bad_typeidD0Ev
000000000009dc3c T _ZNSt10bad_typeidD1Ev
000000000009dc3c T _ZNSt10bad_typeidD2Ev
00000000000d8be8 T _ZNSt11logic_errorC1EPKc
00000000000d8b54 T _ZNSt11logic_errorC1ERKNSt6__ndk112basic_stringIcNS0_11char_traitsIcEENS0_9allocatorIcEEEE
00000000000d8c70 T _ZNSt11logic_errorC1ERKS_
00000000000d8be8 T _ZNSt11logic_errorC2EPKc
00000000000d8b54 T _ZNSt11logic_errorC2ERKNSt6__ndk112basic_stringIcNS0_11char_traitsIcEENS0_9allocatorIcEEEE
00000000000d8c70 T _ZNSt11logic_errorC2ERKS_
000000000009d984 T _ZNSt11logic_errorD0Ev
000000000009d918 T _ZNSt11logic_errorD1Ev
000000000009d918 T _ZNSt11logic_errorD2Ev
00000000000d8ca8 T _ZNSt11logic_erroraSERKS_
000000000009db10 T _ZNSt11range_errorD0Ev
000000000009d9bc T _ZNSt11range_errorD1Ev
000000000009d9bc T _ZNSt11range_errorD2Ev
000000000009da60 T _ZNSt12domain_errorD0Ev
000000000009d918 T _ZNSt12domain_errorD1Ev
000000000009d918 T _ZNSt12domain_errorD2Ev
00000000000d5074 T _ZNSt12experimental19bad_optional_accessD0Ev
00000000000d506c T _ZNSt12experimental19bad_optional_accessD1Ev
00000000000d506c T _ZNSt12experimental19bad_optional_accessD2Ev
000000000009dab8 T _ZNSt12length_errorD0Ev
000000000009d918 T _ZNSt12length_errorD1Ev
000000000009d918 T _ZNSt12length_errorD2Ev
000000000009dae4 T _ZNSt12out_of_rangeD0Ev
000000000009d918 T _ZNSt12out_of_rangeD1Ev
000000000009d918 T _ZNSt12out_of_rangeD2Ev
000000000009d834 T _ZNSt13bad_exceptionD0Ev
000000000009d7f0 T _ZNSt13bad_exceptionD1Ev
000000000009d7f0 T _ZNSt13bad_exceptionD2Ev
00000000000d1f18 T _ZNSt13exception_ptrC1ERKS_
00000000000d1f18 T _ZNSt13exception_ptrC2ERKS_
00000000000d1f0c T _ZNSt13exception_ptrD1Ev
00000000000d1f0c T _ZNSt13exception_ptrD2Ev
00000000000d1f30 T _ZNSt13exception_ptraSERKS_
00000000000d8dac T _ZNSt13runtime_errorC1EPKc
00000000000d8d18 T _ZNSt13runtime_errorC1ERKNSt6__ndk112basic_stringIcNS0_11char_traitsIcEENS0_9allocatorIcEEEE
00000000000d8e34 T _ZNSt13runtime_errorC1ERKS_
00000000000d8dac T _ZNSt13runtime_errorC2EPKc
00000000000d8d18 T _ZNSt13runtime_errorC2ERKNSt6__ndk112basic_stringIcNS0_11char_traitsIcEENS0_9allocatorIcEEEE
00000000000d8e34 T _ZNSt13runtime_errorC2ERKS_
000000000009da28 T _ZNSt13runtime_errorD0Ev
000000000009d9bc T _ZNSt13runtime_errorD1Ev
000000000009d9bc T _ZNSt13runtime_errorD2Ev
00000000000d8e6c T _ZNSt13runtime_erroraSERKS_
000000000009db3c T _ZNSt14overflow_errorD0Ev
000000000009d9bc T _ZNSt14overflow_errorD1Ev
000000000009d9bc T _ZNSt14overflow_errorD2Ev
000000000009db68 T _ZNSt15underflow_errorD0Ev
000000000009d9bc T _ZNSt15underflow_errorD1Ev
000000000009d9bc T _ZNSt15underflow_errorD2Ev
000000000009da8c T _ZNSt16invalid_argumentD0Ev
000000000009d918 T _ZNSt16invalid_argumentD1Ev
000000000009d918 T _ZNSt16invalid_argumentD2Ev
00000000000d1f80 T _ZNSt16nested_exceptionC1Ev
00000000000d1f80 T _ZNSt16nested_exceptionC2Ev
00000000000d2000 T _ZNSt16nested_exceptionD0Ev
00000000000d1fe8 T _ZNSt16nested_exceptionD1Ev
00000000000d1fe8 T _ZNSt16nested_exceptionD2Ev
00000000000d5030 T _ZNSt19bad_optional_accessD0Ev
00000000000d5028 T _ZNSt19bad_optional_accessD1Ev
00000000000d5028 T _ZNSt19bad_optional_accessD2Ev
000000000009d8c4 T _ZNSt20bad_array_new_lengthC1Ev
000000000009d8c4 T _ZNSt20bad_array_new_lengthC2Ev
000000000009d8dc T _ZNSt20bad_array_new_lengthD0Ev
000000000009d7f0 T _ZNSt20bad_array_new_lengthD1Ev
000000000009d7f0 T _ZNSt20bad_array_new_lengthD2Ev
000000000011ee2c T _ZNSt6__ndk110__time_getC1EPKc
000000000011eee4 T _ZNSt6__ndk110__time_getC1ERKNS_12basic_stringIcNS_11char_traitsIcEENS_9allocatorIcEEEE
000000000011ee2c T _ZNSt6__ndk110__time_getC2EPKc
000000000011eee4 T _ZNSt6__ndk110__time_getC2ERKNS_12basic_stringIcNS_11char_traitsIcEENS_9allocatorIcEEEE
000000000011ef70 T _ZNSt6__ndk110__time_getD1Ev
000000000011ef70 T _ZNSt6__ndk110__time_getD2Ev
0000000000122bbc T _ZNSt6__ndk110__time_putC1EPKc
0000000000122c74 T _ZNSt6__ndk110__time_putC1ERKNS_12basic_stringIcNS_11char_traitsIcEENS_9allocatorIcEEEE
0000000000122bbc T _ZNSt6__ndk110__time_putC2EPKc
0000000000122c74 T _ZNSt6__ndk110__time_putC2ERKNS_12basic_stringIcNS_11char_traitsIcEENS_9allocatorIcEEEE
0000000000122d00 T _ZNSt6__ndk110__time_putD1Ev
0000000000122d00 T _ZNSt6__ndk110__time_putD2Ev
000000000005b01a R _ZNSt6__ndk110adopt_lockE
0000000000078290 R _ZNSt6__ndk110ctype_base5alnumE
0000000000078268 R _ZNSt6__ndk110ctype_base5alphaE
0000000000078288 R _ZNSt6__ndk110ctype_base5blankE
0000000000078250 R _ZNSt6__ndk110ctype_base5cntrlE
0000000000078270 R _ZNSt6__ndk110ctype_base5digitE
0000000000078298 R _ZNSt6__ndk110ctype_base5graphE
0000000000078260 R _ZNSt6__ndk110ctype_base5lowerE
0000000000078248 R _ZNSt6__ndk110ctype_base5printE
0000000000078278 R _ZNSt6__ndk110ctype_base5punctE
0000000000078240 R _ZNSt6__ndk110ctype_base5spaceE
0000000000078258 R _ZNSt6__ndk110ctype_base5upperE
0000000000078280 R _ZNSt6__ndk110ctype_base6xdigitE
000000000005b018 R _ZNSt6__ndk110defer_lockE
0000000000128b18 T _ZNSt6__ndk110istrstreamD0Ev
0000000000128a54 T _ZNSt6__ndk110istrstreamD1Ev
0000000000128a08 T _ZNSt6__ndk110istrstreamD2Ev
000000000014d9c0 V _ZNSt6__ndk110moneypunctIcLb0EE2idE
0000000000078218 V _ZNSt6__ndk110moneypunctIcLb0EE4intlE
000000000014d9d0 V _ZNSt6__ndk110moneypunctIcLb1EE2idE
0000000000078219 V _ZNSt6__ndk110moneypunctIcLb1EE4intlE
000000000014d9e0 V _ZNSt6__ndk110moneypunctIwLb0EE2idE
000000000007821a V _ZNSt6__ndk110moneypunctIwLb0EE4intlE
000000000014d9f0 V _ZNSt6__ndk110moneypunctIwLb1EE2idE
000000000007821b V _ZNSt6__ndk110moneypunctIwLb1EE4intlE
0000000000128cfc T _ZNSt6__ndk110ostrstreamD0Ev
0000000000128c38 T _ZNSt6__ndk110ostrstreamD1Ev
0000000000128bec T _ZNSt6__ndk110ostrstreamD2Ev
00000000000e0d38 T _ZNSt6__ndk110to_wstringEd
00000000000e0ef8 T _ZNSt6__ndk110to_wstringEe
00000000000e0b74 T _ZNSt6__ndk110to_wstringEf
00000000000df920 T _ZNSt6__ndk110to_wstringEi
00000000000e0080 T _ZNSt6__ndk110to_wstringEj
00000000000dfb00 T _ZNSt6__ndk110to_wstringEl
00000000000e01ec T _ZNSt6__ndk110to_wstringEm
00000000000dfdc0 T _ZNSt6__ndk110to_wstringEx
00000000000e0448 T _ZNSt6__ndk110to_wstringEy
00000000000d4eb8 T _ZNSt6__ndk111__call_onceERVmPvPFvS2_E
00000000001077a4 W _ZNSt6__ndk111__money_getIcE13__gather_infoEbRKNS_6localeERNS_10money_base7patternERcS8_RNS_12basic_stringIcNS_11char_traitsIcEENS_9allocatorIcEEEESF_SF_SF_Ri
00000000001099d0 W _ZNSt6__ndk111__money_getIwE13__gather_infoEbRKNS_6localeERNS_10money_base7patternERwS8_RNS_12basic_stringIcNS_11char_traitsIcEENS_9allocatorIcEEEERNS9_IwNSA_IwEENSC_IwEEEESJ_SJ_Ri
000000000010a1ac W _ZNSt6__ndk111__money_putIcE13__gather_infoEbbRKNS_6localeERNS_10money_base7patternERcS8_RNS_12basic_stringIcNS_11char_traitsIcEENS_9allocatorIcEEEESF_SF_Ri
000000000010a3ec W _ZNSt6__ndk111__money_putIcE8__formatEPcRS2_S3_jPKcS5_RKNS_5ctypeIcEEbRKNS_10money_base7patternEccRKNS_12basic_stringIcNS_11char_traitsIcEENS_9allocatorIcEEEESL_SL_i
000000000010b134 W _ZNSt6__ndk111__money_putIwE13__gather_infoEbbRKNS_6localeERNS_10money_base7patternERwS8_RNS_12basic_stringIcNS_11char_traitsIcEENS_9allocatorIcEEEERNS9_IwNSA_IwEENSC_IwEEEESJ_Ri
000000000010b374 W _ZNSt6__ndk111__money_putIwE8__formatEPwRS2_S3_jPKwS5_RKNS_5ctypeIwEEbRKNS_10money_base7patternEwwRKNS_12basic_stringIcNS_11char_traitsIcEENS_9allocatorIcEEEERKNSE_IwNSF_IwEENSH_IwEEEESQ_i
0000000000127d88 T _ZNSt6__ndk111regex_errorC1ENS_15regex_constants10error_typeE
0000000000127d88 T _ZNSt6__ndk111regex_errorC2ENS_15regex_constants10error_typeE
0000000000127dfc T _ZNSt6__ndk111regex_errorD0Ev
0000000000127df4 T _ZNSt6__ndk111regex_errorD1Ev
0000000000127df4 T _ZNSt6__ndk111regex_errorD2Ev
00000000000e2260 T _ZNSt6__ndk111this_thread9sleep_forERKNS_6chrono8durationIxNS_5ratioILl1ELl1000000000EEEEE
00000000000d4ac4 T _ZNSt6__ndk111timed_mutex4lockEv
00000000000d4be4 T _ZNSt6__ndk111timed_mutex6unlockEv
00000000000d4b84 T _ZNSt6__ndk111timed_mutex8try_lockEv
00000000000d4a54 T _ZNSt6__ndk111timed_mutexC1Ev
00000000000d4a54 T _ZNSt6__ndk111timed_mutexC2Ev
00000000000d4a70 T _ZNSt6__ndk111timed_mutexD1Ev
00000000000d4a70 T _ZNSt6__ndk111timed_mutexD2Ev
000000000005b019 R _ZNSt6__ndk111try_to_lockE
0000000000105d60 T _ZNSt6__ndk112__do_nothingEPv
00000000000d3ad8 T _ZNSt6__ndk112__get_sp_mutEPKv
00000000000d303c T _ZNSt6__ndk112__next_primeEm
000000000014bd60 B _ZNSt6__ndk112__rs_default4__c_E
00000000000d50d4 T _ZNSt6__ndk112__rs_defaultC1ERKS0_
00000000000d50a0 T _ZNSt6__ndk112__rs_defaultC1Ev
00000000000d50d4 T _ZNSt6__ndk112__rs_defaultC2ERKS0_
00000000000d50a0 T _ZNSt6__ndk112__rs_defaultC2Ev
00000000000d50f0 T _ZNSt6__ndk112__rs_defaultD1Ev
00000000000d50f0 T _ZNSt6__ndk112__rs_defaultD2Ev
00000000000d5130 T _ZNSt6__ndk112__rs_defaultclEv
00000000000d3828 T _ZNSt6__ndk112bad_weak_ptrD0Ev
00000000000d3820 T _ZNSt6__ndk112bad_weak_ptrD1Ev
00000000000d3820 T _ZNSt6__ndk112bad_weak_ptrD2Ev
00000000000d91a0 W _ZNSt6__ndk112basic_stringIcNS_11char_traitsIcEENS_9allocatorIcEEE21__grow_by_and_replaceEmmmmmmPKc
00000000000daf24 W _ZNSt6__ndk112basic_stringIcNS_11char_traitsIcEENS_9allocatorIcEEE2atEm
0000000000077580 V _ZNSt6__ndk112basic_stringIcNS_11char_traitsIcEENS_9allocatorIcEEE4nposE
00000000000dabf4 W _ZNSt6__ndk112basic_stringIcNS_11char_traitsIcEENS_9allocatorIcEEE5eraseEmm
00000000000d9a88 W _ZNSt6__ndk112basic_stringIcNS_11char_traitsIcEENS_9allocatorIcEEE6__initEPKcm
00000000000d93b8 W _ZNSt6__ndk112basic_stringIcNS_11char_traitsIcEENS_9allocatorIcEEE6__initEPKcmm
00000000000da63c W _ZNSt6__ndk112basic_stringIcNS_11char_traitsIcEENS_9allocatorIcEEE6__initEmc
00000000000db2f8 W _ZNSt6__ndk112basic_stringIcNS_11char_traitsIcEENS_9allocatorIcEEE6appendEPKc
00000000000da2a8 W _ZNSt6__ndk112basic_stringIcNS_11char_traitsIcEENS_9allocatorIcEEE6appendEPKcm
00000000000dacc8 W _ZNSt6__ndk112basic_stringIcNS_11char_traitsIcEENS_9allocatorIcEEE6appendERKS5_mm
00000000000da8dc W _ZNSt6__ndk112basic_stringIcNS_11char_traitsIcEENS_9allocatorIcEEE6appendEmc
00000000000daf6c W _ZNSt6__ndk112basic_stringIcNS_11char_traitsIcEENS_9allocatorIcEEE6assignEPKc
00000000000d9fc0 W _ZNSt6__ndk112basic_stringIcNS_11char_traitsIcEENS_9allocatorIcEEE6assignEPKcm
00000000000da434 W _ZNSt6__ndk112basic_stringIcNS_11char_traitsIcEENS_9allocatorIcEEE6assignERKS5_mm
00000000000daab4 W _ZNSt6__ndk112basic_stringIcNS_11char_traitsIcEENS_9allocatorIcEEE6assignEmc
00000000000db384 W _ZNSt6__ndk112basic_stringIcNS_11char_traitsIcEENS_9allocatorIcEEE6insertENS_11__wrap_iterIPKcEEc
00000000000da6dc W _ZNSt6__ndk112basic_stringIcNS_11char_traitsIcEENS_9allocatorIcEEE6insertEmPKc
00000000000d9b58 W _ZNSt6__ndk112basic_stringIcNS_11char_traitsIcEENS_9allocatorIcEEE6insertEmPKcm
00000000000db590 W _ZNSt6__ndk112basic_stringIcNS_11char_traitsIcEENS_9allocatorIcEEE6insertEmRKS5_mm
00000000000d976c W _ZNSt6__ndk112basic_stringIcNS_11char_traitsIcEENS_9allocatorIcEEE6insertEmmc
00000000000db544 W _ZNSt6__ndk112basic_stringIcNS_11char_traitsIcEENS_9allocatorIcEEE6resizeEmc
00000000000d9500 W _ZNSt6__ndk112basic_stringIcNS_11char_traitsIcEENS_9allocatorIcEEE7replaceEmmPKc
00000000000d8edc W _ZNSt6__ndk112basic_stringIcNS_11char_traitsIcEENS_9allocatorIcEEE7replaceEmmPKcm
00000000000db334 W _ZNSt6__ndk112basic_stringIcNS_11char_traitsIcEENS_9allocatorIcEEE7replaceEmmRKS5_mm
00000000000d9dcc W _ZNSt6__ndk112basic_stringIcNS_11char_traitsIcEENS_9allocatorIcEEE7replaceEmmmc
00000000000da10c W _ZNSt6__ndk112basic_stringIcNS_11char_traitsIcEENS_9allocatorIcEEE7reserveEm
00000000000d9924 W _ZNSt6__ndk112basic_stringIcNS_11char_traitsIcEENS_9allocatorIcEEE9__grow_byEmmmmmm
00000000000da7c4 W _ZNSt6__ndk112basic_stringIcNS_11char_traitsIcEENS_9allocatorIcEEE9push_backEc
00000000000d9458 W _ZNSt6__ndk112basic_stringIcNS_11char_traitsIcEENS_9allocatorIcEEEC1ERKS5_
00000000000d9554 W _ZNSt6__ndk112basic_stringIcNS_11char_traitsIcEENS_9allocatorIcEEEC1ERKS5_RKS4_
00000000000da4f4 W _ZNSt6__ndk112basic_stringIcNS_11char_traitsIcEENS_9allocatorIcEEEC1ERKS5_mmRKS4_
00000000000d9458 W _ZNSt6__ndk112basic_stringIcNS_11char_traitsIcEENS_9allocatorIcEEEC2ERKS5_
00000000000d9554 W _ZNSt6__ndk112basic_stringIcNS_11char_traitsIcEENS_9allocatorIcEEEC2ERKS5_RKS4_
00000000000da4f4 W _ZNSt6__ndk112basic_stringIcNS_11char_traitsIcEENS_9allocatorIcEEEC2ERKS5_mmRKS4_
00000000000d96b4 W _ZNSt6__ndk112basic_stringIcNS_11char_traitsIcEENS_9allocatorIcEEED1Ev
00000000000d96b4 W _ZNSt6__ndk112basic_stringIcNS_11char_traitsIcEENS_9allocatorIcEEED2Ev
00000000000db128 W _ZNSt6__ndk112basic_stringIcNS_11char_traitsIcEENS_9allocatorIcEEEaSERKS5_
00000000000d9a4c W _ZNSt6__ndk112basic_stringIcNS_11char_traitsIcEENS_9allocatorIcEEEaSEc
00000000000db7cc W _ZNSt6__ndk112basic_stringIwNS_11char_traitsIwEENS_9allocatorIwEEE21__grow_by_and_replaceEmmmmmmPKw
00000000000dd798 W _ZNSt6__ndk112basic_stringIwNS_11char_traitsIwEENS_9allocatorIwEEE2atEm
0000000000077588 V _ZNSt6__ndk112basic_stringIwNS_11char_traitsIwEENS_9allocatorIwEEE4nposE
00000000000dd380 W _ZNSt6__ndk112basic_stringIwNS_11char_traitsIwEENS_9allocatorIwEEE5eraseEmm
00000000000dc18c W _ZNSt6__ndk112basic_stringIwNS_11char_traitsIwEENS_9allocatorIwEEE6__initEPKwm
00000000000dba18 W _ZNSt6__ndk112basic_stringIwNS_11char_traitsIwEENS_9allocatorIwEEE6__initEPKwmm
00000000000dcce8 W _ZNSt6__ndk112basic_stringIwNS_11char_traitsIwEENS_9allocatorIwEEE6__initEmw
00000000000ddbe0 W _ZNSt6__ndk112basic_stringIwNS_11char_traitsIwEENS_9allocatorIwEEE6appendEPKw
00000000000dc914 W _ZNSt6__ndk112basic_stringIwNS_11char_traitsIwEENS_9allocatorIwEEE6appendEPKwm
00000000000dd45c W _ZNSt6__ndk112basic_stringIwNS_11char_traitsIwEENS_9allocatorIwEEE6appendERKS5_mm
00000000000dcfec W _ZNSt6__ndk112basic_stringIwNS_11char_traitsIwEENS_9allocatorIwEEE6appendEmw
00000000000dd7e4 W _ZNSt6__ndk112basic_stringIwNS_11char_traitsIwEENS_9allocatorIwEEE6assignEPKw
00000000000dc668 W _ZNSt6__ndk112basic_stringIwNS_11char_traitsIwEENS_9allocatorIwEEE6assignEPKwm
00000000000dca00 W _ZNSt6__ndk112basic_stringIwNS_11char_traitsIwEENS_9allocatorIwEEE6assignERKS5_mm
00000000000dd204 W _ZNSt6__ndk112basic_stringIwNS_11char_traitsIwEENS_9allocatorIwEEE6assignEmw
00000000000ddd1c W _ZNSt6__ndk112basic_stringIwNS_11char_traitsIwEENS_9allocatorIwEEE6insertENS_11__wrap_iterIPKwEEw
00000000000dcdd8 W _ZNSt6__ndk112basic_stringIwNS_11char_traitsIwEENS_9allocatorIwEEE6insertEmPKw
00000000000dc27c W _ZNSt6__ndk112basic_stringIwNS_11char_traitsIwEENS_9allocatorIwEEE6insertEmPKwm
00000000000ddf30 W _ZNSt6__ndk112basic_stringIwNS_11char_traitsIwEENS_9allocatorIwEEE6insertEmRKS5_mm
00000000000dbe28 W _ZNSt6__ndk112basic_stringIwNS_11char_traitsIwEENS_9allocatorIwEEE6insertEmmw
00000000000ddee4 W _ZNSt6__ndk112basic_stringIwNS_11char_traitsIwEENS_9allocatorIwEEE6resizeEmw
00000000000dbb98 W _ZNSt6__ndk112basic_stringIwNS_11char_traitsIwEENS_9allocatorIwEEE7replaceEmmPKw
00000000000db5e0 W _ZNSt6__ndk112basic_stringIwNS_11char_traitsIwEENS_9allocatorIwEEE7replaceEmmPKwm
00000000000ddcc8 W _ZNSt6__ndk112basic_stringIwNS_11char_traitsIwEENS_9allocatorIwEEE7replaceEmmRKS5_mm
00000000000dc424 W _ZNSt6__ndk112basic_stringIwNS_11char_traitsIwEENS_9allocatorIwEEE7replaceEmmmw
00000000000dc740 W _ZNSt6__ndk112basic_stringIwNS_11char_traitsIwEENS_9allocatorIwEEE7reserveEm
00000000000dc02c W _ZNSt6__ndk112basic_stringIwNS_11char_traitsIwEENS_9allocatorIwEEE9__grow_byEmmmmmm
00000000000dcec4 W _ZNSt6__ndk112basic_stringIwNS_11char_traitsIwEENS_9allocatorIwEEE9push_backEw
00000000000dbad4 W _ZNSt6__ndk112basic_stringIwNS_11char_traitsIwEENS_9allocatorIwEEEC1ERKS5_
00000000000dbbec W _ZNSt6__ndk112basic_stringIwNS_11char_traitsIwEENS_9allocatorIwEEEC1ERKS5_RKS4_
00000000000dcb7c W _ZNSt6__ndk112basic_stringIwNS_11char_traitsIwEENS_9allocatorIwEEEC1ERKS5_mmRKS4_
00000000000dbad4 W _ZNSt6__ndk112basic_stringIwNS_11char_traitsIwEENS_9allocatorIwEEEC2ERKS5_
00000000000dbbec W _ZNSt6__ndk112basic_stringIwNS_11char_traitsIwEENS_9allocatorIwEEEC2ERKS5_RKS4_
00000000000dcb7c W _ZNSt6__ndk112basic_stringIwNS_11char_traitsIwEENS_9allocatorIwEEEC2ERKS5_mmRKS4_
00000000000dbd60 W _ZNSt6__ndk112basic_stringIwNS_11char_traitsIwEENS_9allocatorIwEEED1Ev
00000000000dbd60 W _ZNSt6__ndk112basic_stringIwNS_11char_traitsIwEENS_9allocatorIwEEED2Ev
00000000000dda70 W _ZNSt6__ndk112basic_stringIwNS_11char_traitsIwEENS_9allocatorIwEEEaSERKS5_
00000000000dc158 W _ZNSt6__ndk112basic_stringIwNS_11char_traitsIwEENS_9allocatorIwEEEaSEw
0000000000116b30 T _ZNSt6__ndk112ctype_bynameIcEC1EPKcm
0000000000116c34 T _ZNSt6__ndk112ctype_bynameIcEC1ERKNS_12basic_stringIcNS_11char_traitsIcEENS_9allocatorIcEEEEm
0000000000116b30 T _ZNSt6__ndk112ctype_bynameIcEC2EPKcm
0000000000116c34 T _ZNSt6__ndk112ctype_bynameIcEC2ERKNS_12basic_stringIcNS_11char_traitsIcEENS_9allocatorIcEEEEm
0000000000116cf8 T _ZNSt6__ndk112ctype_bynameIcED0Ev
0000000000121560 T _ZNSt6__ndk112ctype_bynameIcED1Ev
0000000000121560 T _ZNSt6__ndk112ctype_bynameIcED2Ev
0000000000116e2c T _ZNSt6__ndk112ctype_bynameIwEC1EPKcm
0000000000116f20 T _ZNSt6__ndk112ctype_bynameIwEC1ERKNS_12basic_stringIcNS_11char_traitsIcEENS_9allocatorIcEEEEm
0000000000116e2c T _ZNSt6__ndk112ctype_bynameIwEC2EPKcm
0000000000116f20 T _ZNSt6__ndk112ctype_bynameIwEC2ERKNS_12basic_stringIcNS_11char_traitsIcEENS_9allocatorIcEEEEm
0000000000116fd4 T _ZNSt6__ndk112ctype_bynameIwED0Ev
0000000000121ff4 T _ZNSt6__ndk112ctype_bynameIwED1Ev
0000000000121ff4 T _ZNSt6__ndk112ctype_bynameIwED2Ev
00000000000d232c T _ZNSt6__ndk112future_errorC1ENS_10error_codeE
00000000000d232c T _ZNSt6__ndk112future_errorC2ENS_10error_codeE
00000000000d23c0 T _ZNSt6__ndk112future_errorD0Ev
00000000000d23b8 T _ZNSt6__ndk112future_errorD1Ev
00000000000d23b8 T _ZNSt6__ndk112future_errorD2Ev
00000000000599e8 R _ZNSt6__ndk112placeholders2_1E
00000000000599e9 R _ZNSt6__ndk112placeholders2_2E
00000000000599ea R _ZNSt6__ndk112placeholders2_3E
00000000000599eb R _ZNSt6__ndk112placeholders2_4E
00000000000599ec R _ZNSt6__ndk112placeholders2_5E
00000000000599ed R _ZNSt6__ndk112placeholders2_6E
00000000000599ee R _ZNSt6__ndk112placeholders2_7E
00000000000599ef R _ZNSt6__ndk112placeholders2_8E
00000000000599f0 R _ZNSt6__ndk112placeholders2_9E
00000000000599f1 R _ZNSt6__ndk112placeholders3_10E
000000000012861c T _ZNSt6__ndk112strstreambuf3strEv
0000000000128598 T _ZNSt6__ndk112strstreambuf4swapERS0_
000000000012812c T _ZNSt6__ndk112strstreambuf6__initEPclS1_
00000000001285f4 T _ZNSt6__ndk112strstreambuf6freezeEb
0000000000128838 T _ZNSt6__ndk112strstreambuf7seekoffExNS_8ios_base7seekdirEj
0000000000128968 T _ZNSt6__ndk112strstreambuf7seekposENS_4fposI9mbstate_tEEj
000000000012864c T _ZNSt6__ndk112strstreambuf8overflowEi
000000000012879c T _ZNSt6__ndk112strstreambuf9pbackfailEi
0000000000128800 T _ZNSt6__ndk112strstreambuf9underflowEv
00000000001280d0 T _ZNSt6__ndk112strstreambufC1EPFPvmEPFvS1_E
0000000000128350 T _ZNSt6__ndk112strstreambufC1EPKal
0000000000128234 T _ZNSt6__ndk112strstreambufC1EPKcl
000000000012846c T _ZNSt6__ndk112strstreambufC1EPKhl
00000000001282b8 T _ZNSt6__ndk112strstreambufC1EPalS1_
000000000012819c T _ZNSt6__ndk112strstreambufC1EPclS1_
00000000001283d4 T _ZNSt6__ndk112strstreambufC1EPhlS1_
0000000000128084 T _ZNSt6__ndk112strstreambufC1El
00000000001280d0 T _ZNSt6__ndk112strstreambufC2EPFPvmEPFvS1_E
0000000000128350 T _ZNSt6__ndk112strstreambufC2EPKal
0000000000128234 T _ZNSt6__ndk112strstreambufC2EPKcl
000000000012846c T _ZNSt6__ndk112strstreambufC2EPKhl
00000000001282b8 T _ZNSt6__ndk112strstreambufC2EPalS1_
000000000012819c T _ZNSt6__ndk112strstreambufC2EPclS1_
00000000001283d4 T _ZNSt6__ndk112strstreambufC2EPhlS1_
0000000000128084 T _ZNSt6__ndk112strstreambufC2El
000000000012856c T _ZNSt6__ndk112strstreambufD0Ev
00000000001284f0 T _ZNSt6__ndk112strstreambufD1Ev
00000000001284f0 T _ZNSt6__ndk112strstreambufD2Ev
00000000000e1888 T _ZNSt6__ndk112system_error6__initERKNS_10error_codeENS_12basic_stringIcNS_11char_traitsIcEENS_9allocatorIcEEEE
00000000000e1c10 T _ZNSt6__ndk112system_errorC1ENS_10error_codeE
00000000000e1ac4 T _ZNSt6__ndk112system_errorC1ENS_10error_codeEPKc
00000000000e197c T _ZNSt6__ndk112system_errorC1ENS_10error_codeERKNS_12basic_stringIcNS_11char_traitsIcEENS_9allocatorIcEEEE
00000000000e1fa0 T _ZNSt6__ndk112system_errorC1EiRKNS_14error_categoryE
00000000000e1e40 T _ZNSt6__ndk112system_errorC1EiRKNS_14error_categoryEPKc
00000000000e1ce4 T _ZNSt6__ndk112system_errorC1EiRKNS_14error_categoryERKNS_12basic_stringIcNS_11char_traitsIcEENS_9allocatorIcEEEE
00000000000e1c10 T _ZNSt6__ndk112system_errorC2ENS_10error_codeE
00000000000e1ac4 T _ZNSt6__ndk112system_errorC2ENS_10error_codeEPKc
00000000000e197c T _ZNSt6__ndk112system_errorC2ENS_10error_codeERKNS_12basic_stringIcNS_11char_traitsIcEENS_9allocatorIcEEEE
00000000000e1fa0 T _ZNSt6__ndk112system_errorC2EiRKNS_14error_categoryE
00000000000e1e40 T _ZNSt6__ndk112system_errorC2EiRKNS_14error_categoryEPKc
00000000000e1ce4 T _ZNSt6__ndk112system_errorC2EiRKNS_14error_categoryERKNS_12basic_stringIcNS_11char_traitsIcEENS_9allocatorIcEEEE
00000000000e2090 T _ZNSt6__ndk112system_errorD0Ev
00000000000e2088 T _ZNSt6__ndk112system_errorD1Ev
00000000000e2088 T _ZNSt6__ndk112system_errorD2Ev
000000000005aebc R _ZNSt6__ndk113allocator_argE
00000000000efd24 W _ZNSt6__ndk113basic_filebufIcNS_11char_traitsIcEEE11__read_modeEv
00000000000f0038 W _ZNSt6__ndk113basic_filebufIcNS_11char_traitsIcEEE12__write_modeEv
00000000000ef03c W _ZNSt6__ndk113basic_filebufIcNS_11char_traitsIcEEE4openEPKcj
00000000000ef74c W _ZNSt6__ndk113basic_filebufIcNS_11char_traitsIcEEE4swapERS3_
00000000000f031c W _ZNSt6__ndk113basic_filebufIcNS_11char_traitsIcEEE4syncEv
00000000000ef694 W _ZNSt6__ndk113basic_filebufIcNS_11char_traitsIcEEE5closeEv
00000000000f04f4 W _ZNSt6__ndk113basic_filebufIcNS_11char_traitsIcEEE5imbueERKNS_6localeE
00000000000f00a4 W _ZNSt6__ndk113basic_filebufIcNS_11char_traitsIcEEE6setbufEPcl
00000000000f01cc W _ZNSt6__ndk113basic_filebufIcNS_11char_traitsIcEEE7seekoffExNS_8ios_base7seekdirEj
00000000000f02a4 W _ZNSt6__ndk113basic_filebufIcNS_11char_traitsIcEEE7seekposENS_4fposI9mbstate_tEEj
00000000000efe1c W _ZNSt6__ndk113basic_filebufIcNS_11char_traitsIcEEE8overflowEi
00000000000efdb8 W _ZNSt6__ndk113basic_filebufIcNS_11char_traitsIcEEE9pbackfailEi
00000000000efa8c W _ZNSt6__ndk113basic_filebufIcNS_11char_traitsIcEEE9underflowEv
00000000000ef42c W _ZNSt6__ndk113basic_filebufIcNS_11char_traitsIcEEEC1EOS3_
00000000000ef2f8 W _ZNSt6__ndk113basic_filebufIcNS_11char_traitsIcEEEC1Ev
00000000000ef42c W _ZNSt6__ndk113basic_filebufIcNS_11char_traitsIcEEEC2EOS3_
00000000000ef2f8 W _ZNSt6__ndk113basic_filebufIcNS_11char_traitsIcEEEC2Ev
00000000000ef720 W _ZNSt6__ndk113basic_filebufIcNS_11char_traitsIcEEED0Ev
00000000000ef5c0 W _ZNSt6__ndk113basic_filebufIcNS_11char_traitsIcEEED1Ev
00000000000ef5c0 W _ZNSt6__ndk113basic_filebufIcNS_11char_traitsIcEEED2Ev
00000000000e5c2c W _ZNSt6__ndk113basic_istreamIcNS_11char_traitsIcEEE3getEPcl
00000000000e5cd0 W _ZNSt6__ndk113basic_istreamIcNS_11char_traitsIcEEE3getEPclc
00000000000e5eb0 W _ZNSt6__ndk113basic_istreamIcNS_11char_traitsIcEEE3getERNS_15basic_streambufIcS2_EE
00000000000e5f44 W _ZNSt6__ndk113basic_istreamIcNS_11char_traitsIcEEE3getERNS_15basic_streambufIcS2_EEc
00000000000e5bf0 W _ZNSt6__ndk113basic_istreamIcNS_11char_traitsIcEEE3getERc
00000000000e5ac4 W _ZNSt6__ndk113basic_istreamIcNS_11char_traitsIcEEE3getEv
00000000000e6500 W _ZNSt6__ndk113basic_istreamIcNS_11char_traitsIcEEE4peekEv
00000000000e6614 W _ZNSt6__ndk113basic_istreamIcNS_11char_traitsIcEEE4readEPcl
00000000000e4524 W _ZNSt6__ndk113basic_istreamIcNS_11char_traitsIcEEE4swapERS3_
00000000000e6ab8 W _ZNSt6__ndk113basic_istreamIcNS_11char_traitsIcEEE4syncEv
00000000000e6ca4 W _ZNSt6__ndk113basic_istreamIcNS_11char_traitsIcEEE5seekgENS_4fposI9mbstate_tEE
00000000000e6db4 W _ZNSt6__ndk113basic_istreamIcNS_11char_traitsIcEEE5seekgExNS_8ios_base7seekdirE
00000000000e6ba8 W _ZNSt6__ndk113basic_istreamIcNS_11char_traitsIcEEE5tellgEv
00000000000e6990 W _ZNSt6__ndk113basic_istreamIcNS_11char_traitsIcEEE5ungetEv
00000000000e635c W _ZNSt6__ndk113basic_istreamIcNS_11char_traitsIcEEE6ignoreEli
00000000000e4590 W _ZNSt6__ndk113basic_istreamIcNS_11char_traitsIcEEE6sentryC1ERS3_b
00000000000e4590 W _ZNSt6__ndk113basic_istreamIcNS_11char_traitsIcEEE6sentryC2ERS3_b
00000000000e60a0 W _ZNSt6__ndk113basic_istreamIcNS_11char_traitsIcEEE7getlineEPcl
00000000000e6144 W _ZNSt6__ndk113basic_istreamIcNS_11char_traitsIcEEE7getlineEPclc
00000000000e685c W _ZNSt6__ndk113basic_istreamIcNS_11char_traitsIcEEE7putbackEc
00000000000e670c W _ZNSt6__ndk113basic_istreamIcNS_11char_traitsIcEEE8readsomeEPcl
00000000000e4428 W _ZNSt6__ndk113basic_istreamIcNS_11char_traitsIcEEEC1EPNS_15basic_streambufIcS2_EE
00000000000e43cc W _ZNSt6__ndk113basic_istreamIcNS_11char_traitsIcEEEC2EPNS_15basic_streambufIcS2_EE
00000000000e44bc W _ZNSt6__ndk113basic_istreamIcNS_11char_traitsIcEEED0Ev
00000000000e4498 W _ZNSt6__ndk113basic_istreamIcNS_11char_traitsIcEEED1Ev
00000000000e4490 W _ZNSt6__ndk113basic_istreamIcNS_11char_traitsIcEEED2Ev
00000000000e4898 W _ZNSt6__ndk113basic_istreamIcNS_11char_traitsIcEEErsEPFRNS_8ios_baseES5_E
00000000000e4860 W _ZNSt6__ndk113basic_istreamIcNS_11char_traitsIcEEErsEPFRNS_9basic_iosIcS2_EES6_E
00000000000e4854 W _ZNSt6__ndk113basic_istreamIcNS_11char_traitsIcEEErsEPFRS3_S4_E
00000000000e48d0 W _ZNSt6__ndk113basic_istreamIcNS_11char_traitsIcEEErsEPNS_15basic_streambufIcS2_EE
00000000000e598c W _ZNSt6__ndk113basic_istreamIcNS_11char_traitsIcEEErsERPv
00000000000e4a68 W _ZNSt6__ndk113basic_istreamIcNS_11char_traitsIcEEErsERb
00000000000e571c W _ZNSt6__ndk113basic_istreamIcNS_11char_traitsIcEEErsERd
00000000000e5854 W _ZNSt6__ndk113basic_istreamIcNS_11char_traitsIcEEErsERe
00000000000e55e4 W _ZNSt6__ndk113basic_istreamIcNS_11char_traitsIcEEErsERf
00000000000e4e50 W _ZNSt6__ndk113basic_istreamIcNS_11char_traitsIcEEErsERi
00000000000e4fcc W _ZNSt6__ndk113basic_istreamIcNS_11char_traitsIcEEErsERj
00000000000e5104 W _ZNSt6__ndk113basic_istreamIcNS_11char_traitsIcEEErsERl
00000000000e523c W _ZNSt6__ndk113basic_istreamIcNS_11char_traitsIcEEErsERm
00000000000e4ba0 W _ZNSt6__ndk113basic_istreamIcNS_11char_traitsIcEEErsERs
00000000000e4d18 W _ZNSt6__ndk113basic_istreamIcNS_11char_traitsIcEEErsERt
00000000000e5374 W _ZNSt6__ndk113basic_istreamIcNS_11char_traitsIcEEErsERx
00000000000e54ac W _ZNSt6__ndk113basic_istreamIcNS_11char_traitsIcEEErsERy
00000000000eaf5c W _ZNSt6__ndk113basic_istreamIwNS_11char_traitsIwEEE3getEPwl
00000000000eb000 W _ZNSt6__ndk113basic_istreamIwNS_11char_traitsIwEEE3getEPwlw
00000000000eb1d4 W _ZNSt6__ndk113basic_istreamIwNS_11char_traitsIwEEE3getERNS_15basic_streambufIwS2_EE
00000000000eb268 W _ZNSt6__ndk113basic_istreamIwNS_11char_traitsIwEEE3getERNS_15basic_streambufIwS2_EEw
00000000000eaf20 W _ZNSt6__ndk113basic_istreamIwNS_11char_traitsIwEEE3getERw
00000000000eadf4 W _ZNSt6__ndk113basic_istreamIwNS_11char_traitsIwEEE3getEv
00000000000eb814 W _ZNSt6__ndk113basic_istreamIwNS_11char_traitsIwEEE4peekEv
00000000000eb928 W _ZNSt6__ndk113basic_istreamIwNS_11char_traitsIwEEE4readEPwl
00000000000e980c W _ZNSt6__ndk113basic_istreamIwNS_11char_traitsIwEEE4swapERS3_
00000000000ebde8 W _ZNSt6__ndk113basic_istreamIwNS_11char_traitsIwEEE4syncEv
00000000000ebfd4 W _ZNSt6__ndk113basic_istreamIwNS_11char_traitsIwEEE5seekgENS_4fposI9mbstate_tEE
00000000000ec0e4 W _ZNSt6__ndk113basic_istreamIwNS_11char_traitsIwEEE5seekgExNS_8ios_base7seekdirE
00000000000ebed8 W _ZNSt6__ndk113basic_istreamIwNS_11char_traitsIwEEE5tellgEv
00000000000ebcb4 W _ZNSt6__ndk113basic_istreamIwNS_11char_traitsIwEEE5ungetEv
00000000000eb680 W _ZNSt6__ndk113basic_istreamIwNS_11char_traitsIwEEE6ignoreElj
00000000000e9878 W _ZNSt6__ndk113basic_istreamIwNS_11char_traitsIwEEE6sentryC1ERS3_b
00000000000e9878 W _ZNSt6__ndk113basic_istreamIwNS_11char_traitsIwEEE6sentryC2ERS3_b
00000000000eb3cc W _ZNSt6__ndk113basic_istreamIwNS_11char_traitsIwEEE7getlineEPwl
00000000000eb470 W _ZNSt6__ndk113basic_istreamIwNS_11char_traitsIwEEE7getlineEPwlw
00000000000ebb74 W _ZNSt6__ndk113basic_istreamIwNS_11char_traitsIwEEE7putbackEw
00000000000eba20 W _ZNSt6__ndk113basic_istreamIwNS_11char_traitsIwEEE8readsomeEPwl
00000000000e9710 W _ZNSt6__ndk113basic_istreamIwNS_11char_traitsIwEEEC1EPNS_15basic_streambufIwS2_EE
00000000000e96b4 W _ZNSt6__ndk113basic_istreamIwNS_11char_traitsIwEEEC2EPNS_15basic_streambufIwS2_EE
00000000000e97a4 W _ZNSt6__ndk113basic_istreamIwNS_11char_traitsIwEEED0Ev
00000000000e9780 W _ZNSt6__ndk113basic_istreamIwNS_11char_traitsIwEEED1Ev
00000000000e9778 W _ZNSt6__ndk113basic_istreamIwNS_11char_traitsIwEEED2Ev
00000000000e9bcc W _ZNSt6__ndk113basic_istreamIwNS_11char_traitsIwEEErsEPFRNS_8ios_baseES5_E
00000000000e9b94 W _ZNSt6__ndk113basic_istreamIwNS_11char_traitsIwEEErsEPFRNS_9basic_iosIwS2_EES6_E
00000000000e9b88 W _ZNSt6__ndk113basic_istreamIwNS_11char_traitsIwEEErsEPFRS3_S4_E
00000000000e9c04 W _ZNSt6__ndk113basic_istreamIwNS_11char_traitsIwEEErsEPNS_15basic_streambufIwS2_EE
00000000000eacbc W _ZNSt6__ndk113basic_istreamIwNS_11char_traitsIwEEErsERPv
00000000000e9d98 W _ZNSt6__ndk113basic_istreamIwNS_11char_traitsIwEEErsERb
00000000000eaa4c W _ZNSt6__ndk113basic_istreamIwNS_11char_traitsIwEEErsERd
00000000000eab84 W _ZNSt6__ndk113basic_istreamIwNS_11char_traitsIwEEErsERe
00000000000ea914 W _ZNSt6__ndk113basic_istreamIwNS_11char_traitsIwEEErsERf
00000000000ea180 W _ZNSt6__ndk113basic_istreamIwNS_11char_traitsIwEEErsERi
00000000000ea2fc W _ZNSt6__ndk113basic_istreamIwNS_11char_traitsIwEEErsERj
00000000000ea434 W _ZNSt6__ndk113basic_istreamIwNS_11char_traitsIwEEErsERl
00000000000ea56c W _ZNSt6__ndk113basic_istreamIwNS_11char_traitsIwEEErsERm
00000000000e9ed0 W _ZNSt6__ndk113basic_istreamIwNS_11char_traitsIwEEErsERs
00000000000ea048 W _ZNSt6__ndk113basic_istreamIwNS_11char_traitsIwEEErsERt
00000000000ea6a4 W _ZNSt6__ndk113basic_istreamIwNS_11char_traitsIwEEErsERx
00000000000ea7dc W _ZNSt6__ndk113basic_istreamIwNS_11char_traitsIwEEErsERy
00000000000e8894 W _ZNSt6__ndk113basic_ostreamIcNS_11char_traitsIcEEE3putEc
00000000000e7018 W _ZNSt6__ndk113basic_ostreamIcNS_11char_traitsIcEEE4swapERS3_
00000000000e475c W _ZNSt6__ndk113basic_ostreamIcNS_11char_traitsIcEEE5flushEv
00000000000e8af0 W _ZNSt6__ndk113basic_ostreamIcNS_11char_traitsIcEEE5seekpENS_4fposI9mbstate_tEE
00000000000e8bb4 W _ZNSt6__ndk113basic_ostreamIcNS_11char_traitsIcEEE5seekpExNS_8ios_base7seekdirE
00000000000e8a8c W _ZNSt6__ndk113basic_ostreamIcNS_11char_traitsIcEEE5tellpEv
00000000000e89a0 W _ZNSt6__ndk113basic_ostreamIcNS_11char_traitsIcEEE5writeEPKcl
00000000000e707c W _ZNSt6__ndk113basic_ostreamIcNS_11char_traitsIcEEE6sentryC1ERS3_
00000000000e707c W _ZNSt6__ndk113basic_ostreamIcNS_11char_traitsIcEEE6sentryC2ERS3_
00000000000e70e0 W _ZNSt6__ndk113basic_ostreamIcNS_11char_traitsIcEEE6sentryD1Ev
00000000000e70e0 W _ZNSt6__ndk113basic_ostreamIcNS_11char_traitsIcEEE6sentryD2Ev
00000000000e6f1c W _ZNSt6__ndk113basic_ostreamIcNS_11char_traitsIcEEEC1EPNS_15basic_streambufIcS2_EE
00000000000e6ec4 W _ZNSt6__ndk113basic_ostreamIcNS_11char_traitsIcEEEC2EPNS_15basic_streambufIcS2_EE
00000000000e6fb0 W _ZNSt6__ndk113basic_ostreamIcNS_11char_traitsIcEEED0Ev
00000000000e6f8c W _ZNSt6__ndk113basic_ostreamIcNS_11char_traitsIcEEED1Ev
00000000000e6f84 W _ZNSt6__ndk113basic_ostreamIcNS_11char_traitsIcEEED2Ev
00000000000e71cc W _ZNSt6__ndk113basic_ostreamIcNS_11char_traitsIcEEElsEPFRNS_8ios_baseES5_E
00000000000e7194 W _ZNSt6__ndk113basic_ostreamIcNS_11char_traitsIcEEElsEPFRNS_9basic_iosIcS2_EES6_E
00000000000e7188 W _ZNSt6__ndk113basic_ostreamIcNS_11char_traitsIcEEElsEPFRS3_S4_E
00000000000e84f4 W _ZNSt6__ndk113basic_ostreamIcNS_11char_traitsIcEEElsEPKv
00000000000e8680 W _ZNSt6__ndk113basic_ostreamIcNS_11char_traitsIcEEElsEPNS_15basic_streambufIcS2_EE
00000000000e7204 W _ZNSt6__ndk113basic_ostreamIcNS_11char_traitsIcEEElsEb
00000000000e81d4 W _ZNSt6__ndk113basic_ostreamIcNS_11char_traitsIcEEElsEd
00000000000e8368 W _ZNSt6__ndk113basic_ostreamIcNS_11char_traitsIcEEElsEe
00000000000e8040 W _ZNSt6__ndk113basic_ostreamIcNS_11char_traitsIcEEElsEf
00000000000e76d0 W _ZNSt6__ndk113basic_ostreamIcNS_11char_traitsIcEEElsEi
00000000000e7884 W _ZNSt6__ndk113basic_ostreamIcNS_11char_traitsIcEEElsEj
00000000000e7a10 W _ZNSt6__ndk113basic_ostreamIcNS_11char_traitsIcEEElsEl
00000000000e7b9c W _ZNSt6__ndk113basic_ostreamIcNS_11char_traitsIcEEElsEm
00000000000e7390 W _ZNSt6__ndk113basic_ostreamIcNS_11char_traitsIcEEElsEs
00000000000e7544 W _ZNSt6__ndk113basic_ostreamIcNS_11char_traitsIcEEElsEt
00000000000e7d28 W _ZNSt6__ndk113basic_ostreamIcNS_11char_traitsIcEEElsEx
00000000000e7eb4 W _ZNSt6__ndk113basic_ostreamIcNS_11char_traitsIcEEElsEy
00000000000edbf0 W _ZNSt6__ndk113basic_ostreamIwNS_11char_traitsIwEEE3putEw
00000000000ec348 W _ZNSt6__ndk113basic_ostreamIwNS_11char_traitsIwEEE4swapERS3_
00000000000e9a90 W _ZNSt6__ndk113basic_ostreamIwNS_11char_traitsIwEEE5flushEv
00000000000ede54 W _ZNSt6__ndk113basic_ostreamIwNS_11char_traitsIwEEE5seekpENS_4fposI9mbstate_tEE
00000000000edf18 W _ZNSt6__ndk113basic_ostreamIwNS_11char_traitsIwEEE5seekpExNS_8ios_base7seekdirE
00000000000eddf0 W _ZNSt6__ndk113basic_ostreamIwNS_11char_traitsIwEEE5tellpEv
00000000000edd04 W _ZNSt6__ndk113basic_ostreamIwNS_11char_traitsIwEEE5writeEPKwl
00000000000ec3ac W _ZNSt6__ndk113basic_ostreamIwNS_11char_traitsIwEEE6sentryC1ERS3_
00000000000ec3ac W _ZNSt6__ndk113basic_ostreamIwNS_11char_traitsIwEEE6sentryC2ERS3_
00000000000ec410 W _ZNSt6__ndk113basic_ostreamIwNS_11char_traitsIwEEE6sentryD1Ev
00000000000ec410 W _ZNSt6__ndk113basic_ostreamIwNS_11char_traitsIwEEE6sentryD2Ev
00000000000ec24c W _ZNSt6__ndk113basic_ostreamIwNS_11char_traitsIwEEEC1EPNS_15basic_streambufIwS2_EE
00000000000ec1f4 W _ZNSt6__ndk113basic_ostreamIwNS_11char_traitsIwEEEC2EPNS_15basic_streambufIwS2_EE
00000000000ec2e0 W _ZNSt6__ndk113basic_ostreamIwNS_11char_traitsIwEEED0Ev
00000000000ec2bc W _ZNSt6__ndk113basic_ostreamIwNS_11char_traitsIwEEED1Ev
00000000000ec2b4 W _ZNSt6__ndk113basic_ostreamIwNS_11char_traitsIwEEED2Ev
00000000000ec4fc W _ZNSt6__ndk113basic_ostreamIwNS_11char_traitsIwEEElsEPFRNS_8ios_baseES5_E
00000000000ec4c4 W _ZNSt6__ndk113basic_ostreamIwNS_11char_traitsIwEEElsEPFRNS_9basic_iosIwS2_EES6_E
00000000000ec4b8 W _ZNSt6__ndk113basic_ostreamIwNS_11char_traitsIwEEElsEPFRS3_S4_E
00000000000ed824 W _ZNSt6__ndk113basic_ostreamIwNS_11char_traitsIwEEElsEPKv
00000000000ed9b0 W _ZNSt6__ndk113basic_ostreamIwNS_11char_traitsIwEEElsEPNS_15basic_streambufIwS2_EE
00000000000ec534 W _ZNSt6__ndk113basic_ostreamIwNS_11char_traitsIwEEElsEb
00000000000ed504 W _ZNSt6__ndk113basic_ostreamIwNS_11char_traitsIwEEElsEd
00000000000ed698 W _ZNSt6__ndk113basic_ostreamIwNS_11char_traitsIwEEElsEe
00000000000ed370 W _ZNSt6__ndk113basic_ostreamIwNS_11char_traitsIwEEElsEf
00000000000eca00 W _ZNSt6__ndk113basic_ostreamIwNS_11char_traitsIwEEElsEi
00000000000ecbb4 W _ZNSt6__ndk113basic_ostreamIwNS_11char_traitsIwEEElsEj
00000000000ecd40 W _ZNSt6__ndk113basic_ostreamIwNS_11char_traitsIwEEElsEl
00000000000ececc W _ZNSt6__ndk113basic_ostreamIwNS_11char_traitsIwEEElsEm
00000000000ec6c0 W _ZNSt6__ndk113basic_ostreamIwNS_11char_traitsIwEEElsEs
00000000000ec874 W _ZNSt6__ndk113basic_ostreamIwNS_11char_traitsIwEEElsEt
00000000000ed058 W _ZNSt6__ndk113basic_ostreamIwNS_11char_traitsIwEEElsEx
00000000000ed1e4 W _ZNSt6__ndk113basic_ostreamIwNS_11char_traitsIwEEElsEy
00000000000e2d20 T _ZNSt6__ndk113random_deviceC1ERKNS_12basic_stringIcNS_11char_traitsIcEENS_9allocatorIcEEEE
00000000000e2d20 T _ZNSt6__ndk113random_deviceC2ERKNS_12basic_stringIcNS_11char_traitsIcEENS_9allocatorIcEEEE
00000000000e2dc8 T _ZNSt6__ndk113random_deviceD1Ev
00000000000e2dc8 T _ZNSt6__ndk113random_deviceD2Ev
00000000000e2dec T _ZNSt6__ndk113random_deviceclEv
00000000000d2e94 T _ZNSt6__ndk113shared_futureIvED1Ev
00000000000d2e94 T _ZNSt6__ndk113shared_futureIvED2Ev
00000000000d2ee8 T _ZNSt6__ndk113shared_futureIvEaSERKS1_
000000000011c460 T _ZNSt6__ndk114__num_get_base10__get_baseERNS_8ios_baseE
000000000007814a R _ZNSt6__ndk114__num_get_base5__srcE
000000000011c4a4 T _ZNSt6__ndk114__num_put_base12__format_intEPcPKcbj
000000000011c548 T _ZNSt6__ndk114__num_put_base14__format_floatEPcPKcj
00000000000fd4d8 T _ZNSt6__ndk114__num_put_base18__identify_paddingEPcS1_RKNS_8ios_baseE
00000000000d387c T _ZNSt6__ndk114__shared_count12__add_sharedEv
00000000000d38a0 T _ZNSt6__ndk114__shared_count16__release_sharedEv
00000000000d386c T _ZNSt6__ndk114__shared_countD0Ev
00000000000d3864 T _ZNSt6__ndk114__shared_countD1Ev
00000000000d3864 T _ZNSt6__ndk114__shared_countD2Ev
00000000000eefdc W _ZNSt6__ndk114basic_ifstreamIcNS_11char_traitsIcEEE4openEPKcj
00000000000ef1b8 W _ZNSt6__ndk114basic_ifstreamIcNS_11char_traitsIcEEE4openERKNS_12basic_stringIcS2_NS_9allocatorIcEEEEj
00000000000e8e6c W _ZNSt6__ndk114basic_iostreamIcNS_11char_traitsIcEEE4swapERS3_
00000000000e8d18 W _ZNSt6__ndk114basic_iostreamIcNS_11char_traitsIcEEEC1EPNS_15basic_streambufIcS2_EE
00000000000e8c78 W _ZNSt6__ndk114basic_iostreamIcNS_11char_traitsIcEEEC2EPNS_15basic_streambufIcS2_EE
00000000000e8dd4 W _ZNSt6__ndk114basic_iostreamIcNS_11char_traitsIcEEED0Ev
00000000000e8da4 W _ZNSt6__ndk114basic_iostreamIcNS_11char_traitsIcEEED1Ev
00000000000e8d9c W _ZNSt6__ndk114basic_iostreamIcNS_11char_traitsIcEEED2Ev
00000000000ef228 W _ZNSt6__ndk114basic_ofstreamIcNS_11char_traitsIcEEE4openEPKcj
00000000000ef288 W _ZNSt6__ndk114basic_ofstreamIcNS_11char_traitsIcEEE4openERKNS_12basic_stringIcS2_NS_9allocatorIcEEEEj
000000000010bee0 W _ZNSt6__ndk114codecvt_bynameIDiDu9mbstate_tED0Ev
000000000010bed8 W _ZNSt6__ndk114codecvt_bynameIDiDu9mbstate_tED1Ev
000000000010bed8 W _ZNSt6__ndk114codecvt_bynameIDiDu9mbstate_tED2Ev
000000000010be78 W _ZNSt6__ndk114codecvt_bynameIDic9mbstate_tED0Ev
000000000010be70 W _ZNSt6__ndk114codecvt_bynameIDic9mbstate_tED1Ev
000000000010be70 W _ZNSt6__ndk114codecvt_bynameIDic9mbstate_tED2Ev
000000000010beac W _ZNSt6__ndk114codecvt_bynameIDsDu9mbstate_tED0Ev
000000000010bea4 W _ZNSt6__ndk114codecvt_bynameIDsDu9mbstate_tED1Ev
000000000010bea4 W _ZNSt6__ndk114codecvt_bynameIDsDu9mbstate_tED2Ev
000000000010be44 W _ZNSt6__ndk114codecvt_bynameIDsc9mbstate_tED0Ev
000000000010be3c W _ZNSt6__ndk114codecvt_bynameIDsc9mbstate_tED1Ev
000000000010be3c W _ZNSt6__ndk114codecvt_bynameIDsc9mbstate_tED2Ev
000000000010bddc W _ZNSt6__ndk114codecvt_bynameIcc9mbstate_tED0Ev
000000000010bdd4 W _ZNSt6__ndk114codecvt_bynameIcc9mbstate_tED1Ev
000000000010bdd4 W _ZNSt6__ndk114codecvt_bynameIcc9mbstate_tED2Ev
000000000010be10 W _ZNSt6__ndk114codecvt_bynameIwc9mbstate_tED0Ev
000000000010be08 W _ZNSt6__ndk114codecvt_bynameIwc9mbstate_tED1Ev
000000000010be08 W _ZNSt6__ndk114codecvt_bynameIwc9mbstate_tED2Ev
0000000000115180 T _ZNSt6__ndk114collate_bynameIcEC1EPKcm
000000000011532c T _ZNSt6__ndk114collate_bynameIcEC1ERKNS_12basic_stringIcNS_11char_traitsIcEENS_9allocatorIcEEEEm
0000000000115180 T _ZNSt6__ndk114collate_bynameIcEC2EPKcm
000000000011532c T _ZNSt6__ndk114collate_bynameIcEC2ERKNS_12basic_stringIcNS_11char_traitsIcEENS_9allocatorIcEEEEm
0000000000115424 T _ZNSt6__ndk114collate_bynameIcED0Ev
00000000001153e0 T _ZNSt6__ndk114collate_bynameIcED1Ev
00000000001153e0 T _ZNSt6__ndk114collate_bynameIcED2Ev
00000000001157ec T _ZNSt6__ndk114collate_bynameIwEC1EPKcm
00000000001158e0 T _ZNSt6__ndk114collate_bynameIwEC1ERKNS_12basic_stringIcNS_11char_traitsIcEENS_9allocatorIcEEEEm
00000000001157ec T _ZNSt6__ndk114collate_bynameIwEC2EPKcm
00000000001158e0 T _ZNSt6__ndk114collate_bynameIwEC2ERKNS_12basic_stringIcNS_11char_traitsIcEENS_9allocatorIcEEEEm
00000000001159d8 T _ZNSt6__ndk114collate_bynameIwED0Ev
0000000000115994 T _ZNSt6__ndk114collate_bynameIwED1Ev
0000000000115994 T _ZNSt6__ndk114collate_bynameIwED2Ev
00000000000e13c8 T _ZNSt6__ndk114error_categoryC2Ev
00000000000e13e0 T _ZNSt6__ndk114error_categoryD0Ev
00000000000e2164 T _ZNSt6__ndk114error_categoryD1Ev
00000000000e2164 T _ZNSt6__ndk114error_categoryD2Ev
0000000000127ef0 T _ZNSt6__ndk115__get_classnameEPKcb
00000000000e24f0 T _ZNSt6__ndk115__thread_struct25notify_all_at_thread_exitEPNS_18condition_variableEPNS_5mutexE
00000000000e2628 T _ZNSt6__ndk115__thread_struct27__make_ready_at_thread_exitEPNS_17__assoc_sub_stateE
00000000000e2470 T _ZNSt6__ndk115__thread_structC1Ev
00000000000e2470 T _ZNSt6__ndk115__thread_structC2Ev
00000000000e24ac T _ZNSt6__ndk115__thread_structD1Ev
00000000000e24ac T _ZNSt6__ndk115__thread_structD2Ev
00000000000e3d78 W _ZNSt6__ndk115basic_streambufIcNS_11char_traitsIcEEE10pubseekoffExNS_8ios_base7seekdirEj
00000000000e3d88 W _ZNSt6__ndk115basic_streambufIcNS_11char_traitsIcEEE10pubseekposENS_4fposI9mbstate_tEEj
00000000000e413c W _ZNSt6__ndk115basic_streambufIcNS_11char_traitsIcEEE4setgEPcS4_S4_
00000000000e4160 W _ZNSt6__ndk115basic_streambufIcNS_11char_traitsIcEEE4setpEPcS4_
00000000000e405c W _ZNSt6__ndk115basic_streambufIcNS_11char_traitsIcEEE4swapERS3_
00000000000e41a0 W _ZNSt6__ndk115basic_streambufIcNS_11char_traitsIcEEE4syncEv
00000000000e4128 W _ZNSt6__ndk115basic_streambufIcNS_11char_traitsIcEEE5gbumpEi
00000000000e4170 W _ZNSt6__ndk115basic_streambufIcNS_11char_traitsIcEEE5imbueERKNS_6localeE
00000000000e414c W _ZNSt6__ndk115basic_streambufIcNS_11char_traitsIcEEE5pbumpEi
00000000000e3e80 W _ZNSt6__ndk115basic_streambufIcNS_11char_traitsIcEEE5sgetcEv
00000000000e3ea4 W _ZNSt6__ndk115basic_streambufIcNS_11char_traitsIcEEE5sgetnEPcl
00000000000e3f1c W _ZNSt6__ndk115basic_streambufIcNS_11char_traitsIcEEE5sputcEc
00000000000e3f58 W _ZNSt6__ndk115basic_streambufIcNS_11char_traitsIcEEE5sputnEPKcl
00000000000e42a4 W _ZNSt6__ndk115basic_streambufIcNS_11char_traitsIcEEE5uflowEv
00000000000e3e54 W _ZNSt6__ndk115basic_streambufIcNS_11char_traitsIcEEE6sbumpcEv
00000000000e4178 W _ZNSt6__ndk115basic_streambufIcNS_11char_traitsIcEEE6setbufEPcl
00000000000e3dcc W _ZNSt6__ndk115basic_streambufIcNS_11char_traitsIcEEE6snextcEv
00000000000e41b8 W _ZNSt6__ndk115basic_streambufIcNS_11char_traitsIcEEE6xsgetnEPcl
00000000000e42f8 W _ZNSt6__ndk115basic_streambufIcNS_11char_traitsIcEEE6xsputnEPKcl
00000000000e3d98 W _ZNSt6__ndk115basic_streambufIcNS_11char_traitsIcEEE7pubsyncEv
00000000000e4180 W _ZNSt6__ndk115basic_streambufIcNS_11char_traitsIcEEE7seekoffExNS_8ios_base7seekdirEj
00000000000e4190 W _ZNSt6__ndk115basic_streambufIcNS_11char_traitsIcEEE7seekposENS_4fposI9mbstate_tEEj
00000000000e3eec W _ZNSt6__ndk115basic_streambufIcNS_11char_traitsIcEEE7sungetcEv
00000000000e3da8 W _ZNSt6__ndk115basic_streambufIcNS_11char_traitsIcEEE8in_availEv
00000000000e43c0 W _ZNSt6__ndk115basic_streambufIcNS_11char_traitsIcEEE8overflowEi
00000000000e3d04 W _ZNSt6__ndk115basic_streambufIcNS_11char_traitsIcEEE8pubimbueERKNS_6localeE
00000000000e42ec W _ZNSt6__ndk115basic_streambufIcNS_11char_traitsIcEEE9pbackfailEi
00000000000e3d68 W _ZNSt6__ndk115basic_streambufIcNS_11char_traitsIcEEE9pubsetbufEPcl
00000000000e41ac W _ZNSt6__ndk115basic_streambufIcNS_11char_traitsIcEEE9showmanycEv
00000000000e3eb4 W _ZNSt6__ndk115basic_streambufIcNS_11char_traitsIcEEE9sputbackcEc
00000000000e4298 W _ZNSt6__ndk115basic_streambufIcNS_11char_traitsIcEEE9underflowEv
00000000000e3fb0 W _ZNSt6__ndk115basic_streambufIcNS_11char_traitsIcEEEC1ERKS3_
00000000000e3f68 W _ZNSt6__ndk115basic_streambufIcNS_11char_traitsIcEEEC1Ev
00000000000e3fb0 W _ZNSt6__ndk115basic_streambufIcNS_11char_traitsIcEEEC2ERKS3_
00000000000e3f68 W _ZNSt6__ndk115basic_streambufIcNS_11char_traitsIcEEEC2Ev
00000000000e3cd8 W _ZNSt6__ndk115basic_streambufIcNS_11char_traitsIcEEED0Ev
00000000000e3cc0 W _ZNSt6__ndk115basic_streambufIcNS_11char_traitsIcEEED1Ev
00000000000e3cc0 W _ZNSt6__ndk115basic_streambufIcNS_11char_traitsIcEEED2Ev
00000000000e400c W _ZNSt6__ndk115basic_streambufIcNS_11char_traitsIcEEEaSERKS3_
00000000000e9040 W _ZNSt6__ndk115basic_streambufIwNS_11char_traitsIwEEE10pubseekoffExNS_8ios_base7seekdirEj
00000000000e9050 W _ZNSt6__ndk115basic_streambufIwNS_11char_traitsIwEEE10pubseekposENS_4fposI9mbstate_tEEj
00000000000e9418 W _ZNSt6__ndk115basic_streambufIwNS_11char_traitsIwEEE4setgEPwS4_S4_
00000000000e943c W _ZNSt6__ndk115basic_streambufIwNS_11char_traitsIwEEE4setpEPwS4_
00000000000e9338 W _ZNSt6__ndk115basic_streambufIwNS_11char_traitsIwEEE4swapERS3_
00000000000e947c W _ZNSt6__ndk115basic_streambufIwNS_11char_traitsIwEEE4syncEv
00000000000e9404 W _ZNSt6__ndk115basic_streambufIwNS_11char_traitsIwEEE5gbumpEi
00000000000e944c W _ZNSt6__ndk115basic_streambufIwNS_11char_traitsIwEEE5imbueERKNS_6localeE
00000000000e9428 W _ZNSt6__ndk115basic_streambufIwNS_11char_traitsIwEEE5pbumpEi
00000000000e915c W _ZNSt6__ndk115basic_streambufIwNS_11char_traitsIwEEE5sgetcEv
00000000000e9180 W _ZNSt6__ndk115basic_streambufIwNS_11char_traitsIwEEE5sgetnEPwl
00000000000e9200 W _ZNSt6__ndk115basic_streambufIwNS_11char_traitsIwEEE5sputcEw
00000000000e9234 W _ZNSt6__ndk115basic_streambufIwNS_11char_traitsIwEEE5sputnEPKwl
00000000000e9588 W _ZNSt6__ndk115basic_streambufIwNS_11char_traitsIwEEE5uflowEv
00000000000e912c W _ZNSt6__ndk115basic_streambufIwNS_11char_traitsIwEEE6sbumpcEv
00000000000e9454 W _ZNSt6__ndk115basic_streambufIwNS_11char_traitsIwEEE6setbufEPwl
00000000000e9098 W _ZNSt6__ndk115basic_streambufIwNS_11char_traitsIwEEE6snextcEv
00000000000e9494 W _ZNSt6__ndk115basic_streambufIwNS_11char_traitsIwEEE6xsgetnEPwl
00000000000e95d8 W _ZNSt6__ndk115basic_streambufIwNS_11char_traitsIwEEE6xsputnEPKwl
00000000000e9060 W _ZNSt6__ndk115basic_streambufIwNS_11char_traitsIwEEE7pubsyncEv
00000000000e945c W _ZNSt6__ndk115basic_streambufIwNS_11char_traitsIwEEE7seekoffExNS_8ios_base7seekdirEj
00000000000e946c W _ZNSt6__ndk115basic_streambufIwNS_11char_traitsIwEEE7seekposENS_4fposI9mbstate_tEEj
00000000000e91cc W _ZNSt6__ndk115basic_streambufIwNS_11char_traitsIwEEE7sungetcEv
00000000000e9070 W _ZNSt6__ndk115basic_streambufIwNS_11char_traitsIwEEE8in_availEv
00000000000e96a8 W _ZNSt6__ndk115basic_streambufIwNS_11char_traitsIwEEE8overflowEj
00000000000e8fcc W _ZNSt6__ndk115basic_streambufIwNS_11char_traitsIwEEE8pubimbueERKNS_6localeE
00000000000e95cc W _ZNSt6__ndk115basic_streambufIwNS_11char_traitsIwEEE9pbackfailEj
00000000000e9030 W _ZNSt6__ndk115basic_streambufIwNS_11char_traitsIwEEE9pubsetbufEPwl
00000000000e9488 W _ZNSt6__ndk115basic_streambufIwNS_11char_traitsIwEEE9showmanycEv
00000000000e9190 W _ZNSt6__ndk115basic_streambufIwNS_11char_traitsIwEEE9sputbackcEw
00000000000e957c W _ZNSt6__ndk115basic_streambufIwNS_11char_traitsIwEEE9underflowEv
00000000000e928c W _ZNSt6__ndk115basic_streambufIwNS_11char_traitsIwEEEC1ERKS3_
00000000000e9244 W _ZNSt6__ndk115basic_streambufIwNS_11char_traitsIwEEEC1Ev
00000000000e928c W _ZNSt6__ndk115basic_streambufIwNS_11char_traitsIwEEEC2ERKS3_
00000000000e9244 W _ZNSt6__ndk115basic_streambufIwNS_11char_traitsIwEEEC2Ev
00000000000e8fa0 W _ZNSt6__ndk115basic_streambufIwNS_11char_traitsIwEEED0Ev
00000000000e8f88 W _ZNSt6__ndk115basic_streambufIwNS_11char_traitsIwEEED1Ev
00000000000e8f88 W _ZNSt6__ndk115basic_streambufIwNS_11char_traitsIwEEED2Ev
00000000000e92e8 W _ZNSt6__ndk115basic_streambufIwNS_11char_traitsIwEEEaSERKS3_
00000000000ee908 W _ZNSt6__ndk115basic_stringbufIcNS_11char_traitsIcEENS_9allocatorIcEEE3strERKNS_12basic_stringIcS2_S4_EE
00000000000ee3f8 W _ZNSt6__ndk115basic_stringbufIcNS_11char_traitsIcEENS_9allocatorIcEEE4swapERS5_
00000000000eed0c W _ZNSt6__ndk115basic_stringbufIcNS_11char_traitsIcEENS_9allocatorIcEEE7seekoffExNS_8ios_base7seekdirEj
00000000000eeb44 W _ZNSt6__ndk115basic_stringbufIcNS_11char_traitsIcEENS_9allocatorIcEEE8overflowEi
00000000000eead0 W _ZNSt6__ndk115basic_stringbufIcNS_11char_traitsIcEENS_9allocatorIcEEE9pbackfailEi
00000000000eea7c W _ZNSt6__ndk115basic_stringbufIcNS_11char_traitsIcEENS_9allocatorIcEEE9underflowEv
00000000000edfdc W _ZNSt6__ndk115basic_stringbufIcNS_11char_traitsIcEENS_9allocatorIcEEEC1EOS5_
00000000000edfdc W _ZNSt6__ndk115basic_stringbufIcNS_11char_traitsIcEENS_9allocatorIcEEEC2EOS5_
00000000000ee1f0 W _ZNSt6__ndk115basic_stringbufIcNS_11char_traitsIcEENS_9allocatorIcEEEaSEOS5_
00000000000d22b0 T _ZNSt6__ndk115future_categoryEv
000000000011bd9c T _ZNSt6__ndk115numpunct_bynameIcE6__initEPKc
000000000011bd3c T _ZNSt6__ndk115numpunct_bynameIcEC1EPKcm
000000000011bf38 T _ZNSt6__ndk115numpunct_bynameIcEC1ERKNS_12basic_stringIcNS_11char_traitsIcEENS_9allocatorIcEEEEm
000000000011bd3c T _ZNSt6__ndk115numpunct_bynameIcEC2EPKcm
000000000011bf38 T _ZNSt6__ndk115numpunct_bynameIcEC2ERKNS_12basic_stringIcNS_11char_traitsIcEENS_9allocatorIcEEEEm
000000000011bfa8 T _ZNSt6__ndk115numpunct_bynameIcED0Ev
000000000011b964 T _ZNSt6__ndk115numpunct_bynameIcED1Ev
000000000011b964 T _ZNSt6__ndk115numpunct_bynameIcED2Ev
000000000011c15c T _ZNSt6__ndk115numpunct_bynameIwE6__initEPKc
000000000011c0f8 T _ZNSt6__ndk115numpunct_bynameIwEC1EPKcm
000000000011c2e8 T _ZNSt6__ndk115numpunct_bynameIwEC1ERKNS_12basic_stringIcNS_11char_traitsIcEENS_9allocatorIcEEEEm
000000000011c0f8 T _ZNSt6__ndk115numpunct_bynameIwEC2EPKcm
000000000011c2e8 T _ZNSt6__ndk115numpunct_bynameIwEC2ERKNS_12basic_stringIcNS_11char_traitsIcEENS_9allocatorIcEEEEm
000000000011c35c T _ZNSt6__ndk115numpunct_bynameIwED0Ev
000000000011b9d8 T _ZNSt6__ndk115numpunct_bynameIwED1Ev
000000000011b9d8 T _ZNSt6__ndk115numpunct_bynameIwED2Ev
00000000000d49e0 T _ZNSt6__ndk115recursive_mutex4lockEv
00000000000d4a0c T _ZNSt6__ndk115recursive_mutex6unlockEv
00000000000d4a2c T _ZNSt6__ndk115recursive_mutex8try_lockEv
00000000000d491c T _ZNSt6__ndk115recursive_mutexC1Ev
00000000000d491c T _ZNSt6__ndk115recursive_mutexC2Ev
00000000000d49c0 T _ZNSt6__ndk115recursive_mutexD1Ev
00000000000d49c0 T _ZNSt6__ndk115recursive_mutexD2Ev
00000000000e17e4 T _ZNSt6__ndk115system_categoryEv
00000000001079e4 T _ZNSt6__ndk116__check_groupingERKNS_12basic_stringIcNS_11char_traitsIcEENS_9allocatorIcEEEEPjS8_Rj
000000000011b858 T _ZNSt6__ndk116__narrow_to_utf8ILm16EED0Ev
0000000000124f04 T _ZNSt6__ndk116__narrow_to_utf8ILm16EED1Ev
0000000000124f04 T _ZNSt6__ndk116__narrow_to_utf8ILm16EED2Ev
000000000011b884 T _ZNSt6__ndk116__narrow_to_utf8ILm32EED0Ev
0000000000124f04 T _ZNSt6__ndk116__narrow_to_utf8ILm32EED1Ev
0000000000124f04 T _ZNSt6__ndk116__narrow_to_utf8ILm32EED2Ev
00000000000e15ec T _ZNSt6__ndk116generic_categoryEv
00000000000d2854 T _ZNSt6__ndk117__assoc_sub_state10__sub_waitERNS_11unique_lockINS_5mutexEEE
00000000000d2720 T _ZNSt6__ndk117__assoc_sub_state12__make_readyEv
00000000000d25d0 T _ZNSt6__ndk117__assoc_sub_state13set_exceptionESt13exception_ptr
00000000000d23ec T _ZNSt6__ndk117__assoc_sub_state16__on_zero_sharedEv
00000000000d2538 T _ZNSt6__ndk117__assoc_sub_state24set_value_at_thread_exitEv
00000000000d2678 T _ZNSt6__ndk117__assoc_sub_state28set_exception_at_thread_exitESt13exception_ptr
00000000000d2768 T _ZNSt6__ndk117__assoc_sub_state4copyEv
00000000000d28f4 T _ZNSt6__ndk117__assoc_sub_state4waitEv
00000000000d299c T _ZNSt6__ndk117__assoc_sub_state9__executeEv
00000000000d23fc T _ZNSt6__ndk117__assoc_sub_state9set_valueEv
000000000011b8b0 T _ZNSt6__ndk117__widen_from_utf8ILm16EED0Ev
0000000000124f04 T _ZNSt6__ndk117__widen_from_utf8ILm16EED1Ev
0000000000124f04 T _ZNSt6__ndk117__widen_from_utf8ILm16EED2Ev
000000000011b8dc T _ZNSt6__ndk117__widen_from_utf8ILm32EED0Ev
0000000000124f04 T _ZNSt6__ndk117__widen_from_utf8ILm32EED1Ev
0000000000124f04 T _ZNSt6__ndk117__widen_from_utf8ILm32EED2Ev
00000000000d20a4 T _ZNSt6__ndk117bad_function_callD0Ev
00000000000d209c T _ZNSt6__ndk117bad_function_callD1Ev
00000000000d209c T _ZNSt6__ndk117bad_function_callD2Ev
00000000000d3800 T _ZNSt6__ndk117declare_reachableEPv
00000000000e2f68 T _ZNSt6__ndk117iostream_categoryEv
0000000000122da8 T _ZNSt6__ndk117moneypunct_bynameIcLb0EE4initEPKc
000000000012360c T _ZNSt6__ndk117moneypunct_bynameIcLb1EE4initEPKc
0000000000123958 T _ZNSt6__ndk117moneypunct_bynameIwLb0EE4initEPKc
00000000001242e0 T _ZNSt6__ndk117moneypunct_bynameIwLb1EE4initEPKc
0000000000120344 T _ZNSt6__ndk118__time_get_storageIcE4initERKNS_5ctypeIcEE
000000000011ef94 T _ZNSt6__ndk118__time_get_storageIcE9__analyzeEcRKNS_5ctypeIcEE
0000000000121060 T _ZNSt6__ndk118__time_get_storageIcEC1EPKc
00000000001215c8 T _ZNSt6__ndk118__time_get_storageIcEC1ERKNS_12basic_stringIcNS_11char_traitsIcEENS_9allocatorIcEEEE
0000000000121060 T _ZNSt6__ndk118__time_get_storageIcEC2EPKc
00000000001215c8 T _ZNSt6__ndk118__time_get_storageIcEC2ERKNS_12basic_stringIcNS_11char_traitsIcEENS_9allocatorIcEEEE
000000000012085c T _ZNSt6__ndk118__time_get_storageIwE4initERKNS_5ctypeIwEE
000000000011f8e4 T _ZNSt6__ndk118__time_get_storageIwE9__analyzeEcRKNS_5ctypeIwEE
0000000000121b18 T _ZNSt6__ndk118__time_get_storageIwEC1EPKc
0000000000122038 T _ZNSt6__ndk118__time_get_storageIwEC1ERKNS_12basic_stringIcNS_11char_traitsIcEENS_9allocatorIcEEEE
0000000000121b18 T _ZNSt6__ndk118__time_get_storageIwEC2EPKc
0000000000122038 T _ZNSt6__ndk118__time_get_storageIwEC2ERKNS_12basic_stringIcNS_11char_traitsIcEENS_9allocatorIcEEEE
00000000000eee34 W _ZNSt6__ndk118basic_stringstreamIcNS_11char_traitsIcEENS_9allocatorIcEEEaSEOS5_
00000000000d1d24 T _ZNSt6__ndk118condition_variable10notify_allEv
00000000000d1d04 T _ZNSt6__ndk118condition_variable10notify_oneEv
00000000000d1d90 T _ZNSt6__ndk118condition_variable15__do_timed_waitERNS_11unique_lockINS_5mutexEEENS_6chrono10time_pointINS5_12system_clockENS5_8durationIxNS_5ratioILl1ELl1000000000EEEEEEE
00000000000d1d44 T _ZNSt6__ndk118condition_variable4waitERNS_11unique_lockINS_5mutexEEE
00000000000d1ec0 T _ZNSt6__ndk118condition_variableD1Ev
00000000000d1ec0 T _ZNSt6__ndk118condition_variableD2Ev
00000000000d89e8 T _ZNSt6__ndk118shared_timed_mutex11lock_sharedEv
00000000000d8ad8 T _ZNSt6__ndk118shared_timed_mutex13unlock_sharedEv
00000000000d8a80 T _ZNSt6__ndk118shared_timed_mutex15try_lock_sharedEv
00000000000d88d0 T _ZNSt6__ndk118shared_timed_mutex4lockEv
00000000000d89b0 T _ZNSt6__ndk118shared_timed_mutex6unlockEv
00000000000d8964 T _ZNSt6__ndk118shared_timed_mutex8try_lockEv
00000000000d88c8 T _ZNSt6__ndk118shared_timed_mutexC1Ev
00000000000d88c8 T _ZNSt6__ndk118shared_timed_mutexC2Ev
00000000000d874c T _ZNSt6__ndk119__shared_mutex_base11lock_sharedEv
00000000000d884c T _ZNSt6__ndk119__shared_mutex_base13unlock_sharedEv
00000000000d87f4 T _ZNSt6__ndk119__shared_mutex_base15try_lock_sharedEv
00000000000d8634 T _ZNSt6__ndk119__shared_mutex_base4lockEv
00000000000d8714 T _ZNSt6__ndk119__shared_mutex_base6unlockEv
00000000000d86c8 T _ZNSt6__ndk119__shared_mutex_base8try_lockEv
00000000000d8614 T _ZNSt6__ndk119__shared_mutex_baseC1Ev
00000000000d8614 T _ZNSt6__ndk119__shared_mutex_baseC2Ev
00000000000d392c T _ZNSt6__ndk119__shared_weak_count10__add_weakEv
00000000000d3908 T _ZNSt6__ndk119__shared_weak_count12__add_sharedEv
00000000000d39cc T _ZNSt6__ndk119__shared_weak_count14__release_weakEv
00000000000d3950 T _ZNSt6__ndk119__shared_weak_count16__release_sharedEv
00000000000d3a24 T _ZNSt6__ndk119__shared_weak_count4lockEv
00000000000d3874 T _ZNSt6__ndk119__shared_weak_countD0Ev
00000000000d3864 T _ZNSt6__ndk119__shared_weak_countD1Ev
00000000000d3864 T _ZNSt6__ndk119__shared_weak_countD2Ev
00000000000e22dc T _ZNSt6__ndk119__thread_local_dataEv
00000000000eef50 W _ZNSt6__ndk119basic_istringstreamIcNS_11char_traitsIcEENS_9allocatorIcEEEaSEOS5_
00000000000eeec0 W _ZNSt6__ndk119basic_ostringstreamIcNS_11char_traitsIcEENS_9allocatorIcEEEaSEOS5_
00000000000d3808 T _ZNSt6__ndk119declare_no_pointersEPcm
0000000000077a0b R _ZNSt6__ndk119piecewise_constructE
0000000000127e28 T _ZNSt6__ndk120__get_collation_nameEPKc
00000000000cf918 T _ZNSt6__ndk120__libcpp_atomic_waitEPVKNS_17__cxx_atomic_implIiNS_22__cxx_atomic_base_implIiEEEEi
00000000000cf750 T _ZNSt6__ndk120__libcpp_atomic_waitEPVKvi
00000000000e20bc T _ZNSt6__ndk120__throw_system_errorEiPKc
00000000001071b0 T _ZNSt6__ndk121__throw_runtime_errorEPKc
00000000000d3818 T _ZNSt6__ndk121__undeclare_reachableEPv
00000000000d4ca8 T _ZNSt6__ndk121recursive_timed_mutex4lockEv
00000000000d4e3c T _ZNSt6__ndk121recursive_timed_mutex6unlockEv
00000000000d4da4 T _ZNSt6__ndk121recursive_timed_mutex8try_lockEv
00000000000d4c38 T _ZNSt6__ndk121recursive_timed_mutexC1Ev
00000000000d4c38 T _ZNSt6__ndk121recursive_timed_mutexC2Ev
00000000000d4c54 T _ZNSt6__ndk121recursive_timed_mutexD1Ev
00000000000d4c54 T _ZNSt6__ndk121recursive_timed_mutexD2Ev
00000000000d3810 T _ZNSt6__ndk121undeclare_no_pointersEPcm
00000000000e2c44 W _ZNSt6__ndk122__libcpp_verbose_abortEPKcz
00000000000cf88c T _ZNSt6__ndk123__cxx_atomic_notify_allEPVKNS_17__cxx_atomic_implIiNS_22__cxx_atomic_base_implIiEEEE
00000000000cf63c T _ZNSt6__ndk123__cxx_atomic_notify_allEPVKv
00000000000cf80c T _ZNSt6__ndk123__cxx_atomic_notify_oneEPVKNS_17__cxx_atomic_implIiNS_22__cxx_atomic_base_implIiEEEE
00000000000cf588 T _ZNSt6__ndk123__cxx_atomic_notify_oneEPVKv
00000000000cf90c T _ZNSt6__ndk123__libcpp_atomic_monitorEPVKNS_17__cxx_atomic_implIiNS_22__cxx_atomic_base_implIiEEEE
00000000000cf6f0 T _ZNSt6__ndk123__libcpp_atomic_monitorEPVKv
00000000000d1e30 T _ZNSt6__ndk125notify_all_at_thread_exitERNS_18condition_variableENS_11unique_lockINS_5mutexEEE
00000000000bf53c W _ZNSt6__ndk127__insertion_sort_incompleteIRNS_6__lessIaaEEPaEEbT0_S5_T_
00000000000bef48 W _ZNSt6__ndk127__insertion_sort_incompleteIRNS_6__lessIccEEPcEEbT0_S5_T_
00000000000c15bc W _ZNSt6__ndk127__insertion_sort_incompleteIRNS_6__lessIddEEPdEEbT0_S5_T_
00000000000c18a4 W _ZNSt6__ndk127__insertion_sort_incompleteIRNS_6__lessIeeEEPeEEbT0_S5_T_
00000000000c12d4 W _ZNSt6__ndk127__insertion_sort_incompleteIRNS_6__lessIffEEPfEEbT0_S5_T_
00000000000bf850 W _ZNSt6__ndk127__insertion_sort_incompleteIRNS_6__lessIhhEEPhEEbT0_S5_T_
00000000000c0194 W _ZNSt6__ndk127__insertion_sort_incompleteIRNS_6__lessIiiEEPiEEbT0_S5_T_
00000000000c0474 W _ZNSt6__ndk127__insertion_sort_incompleteIRNS_6__lessIjjEEPjEEbT0_S5_T_
00000000000c0754 W _ZNSt6__ndk127__insertion_sort_incompleteIRNS_6__lessIllEEPlEEbT0_S5_T_
00000000000c0a34 W _ZNSt6__ndk127__insertion_sort_incompleteIRNS_6__lessImmEEPmEEbT0_S5_T_
00000000000bfb64 W _ZNSt6__ndk127__insertion_sort_incompleteIRNS_6__lessIssEEPsEEbT0_S5_T_
00000000000bfe7c W _ZNSt6__ndk127__insertion_sort_incompleteIRNS_6__lessIttEEPtEEbT0_S5_T_
00000000000bf25c W _ZNSt6__ndk127__insertion_sort_incompleteIRNS_6__lessIwwEEPwEEbT0_S5_T_
00000000000c0d14 W _ZNSt6__ndk127__insertion_sort_incompleteIRNS_6__lessIxxEEPxEEbT0_S5_T_
00000000000c0ff4 W _ZNSt6__ndk127__insertion_sort_incompleteIRNS_6__lessIyyEEPyEEbT0_S5_T_
00000000000cfa70 T _ZNSt6__ndk131__arrive_barrier_algorithm_baseEPNS_24__barrier_algorithm_baseEh
00000000000cfc24 T _ZNSt6__ndk132__destroy_barrier_algorithm_baseEPNS_24__barrier_algorithm_baseE
00000000000cf9d4 T _ZNSt6__ndk134__construct_barrier_algorithm_baseERl
000000000014d178 B _ZNSt6__ndk13cinE
00000000000d3b80 T _ZNSt6__ndk13pmr15memory_resourceD0Ev
00000000000d4870 T _ZNSt6__ndk13pmr15memory_resourceD1Ev
00000000000d4870 T _ZNSt6__ndk13pmr15memory_resourceD2Ev
00000000000d3b88 T _ZNSt6__ndk13pmr19new_delete_resourceEv
00000000000d3ba8 T _ZNSt6__ndk13pmr20get_default_resourceEv
00000000000d3b98 T _ZNSt6__ndk13pmr20null_memory_resourceEv
00000000000d3bbc T _ZNSt6__ndk13pmr20set_default_resourceEPNS0_15memory_resourceE
00000000000d434c T _ZNSt6__ndk13pmr25monotonic_buffer_resource11do_allocateEmm
00000000000d4300 T _ZNSt6__ndk13pmr25monotonic_buffer_resource14__chunk_footer25__try_allocate_from_chunkEmm
00000000000d42ac T _ZNSt6__ndk13pmr25monotonic_buffer_resource20__initial_descriptor25__try_allocate_from_chunkEmm
00000000000d3f70 T _ZNSt6__ndk13pmr28unsynchronized_pool_resource11do_allocateEmm
00000000000d3c50 T _ZNSt6__ndk13pmr28unsynchronized_pool_resource12__adhoc_pool13__do_allocateEPNS0_15memory_resourceEmm
00000000000d3bec T _ZNSt6__ndk13pmr28unsynchronized_pool_resource12__adhoc_pool13__release_ptrEPNS0_15memory_resourceE
00000000000d3cc0 T _ZNSt6__ndk13pmr28unsynchronized_pool_resource12__adhoc_pool15__do_deallocateEPNS0_15memory_resourceEPvmm
00000000000d41ac T _ZNSt6__ndk13pmr28unsynchronized_pool_resource13do_deallocateEPvmm
00000000000d3e6c T _ZNSt6__ndk13pmr28unsynchronized_pool_resource7releaseEv
00000000000d3db8 T _ZNSt6__ndk13pmr28unsynchronized_pool_resourceC1ERKNS0_12pool_optionsEPNS0_15memory_resourceE
00000000000d3db8 T _ZNSt6__ndk13pmr28unsynchronized_pool_resourceC2ERKNS0_12pool_optionsEPNS0_15memory_resourceE
0000000000129324 T _ZNSt6__ndk14__fs10filesystem10__absoluteERKNS1_4pathEPNS_10error_codeE
000000000012f480 T _ZNSt6__ndk14__fs10filesystem10hash_valueERKNS1_4pathE
00000000001295a8 T _ZNSt6__ndk14__fs10filesystem11__canonicalERKNS1_4pathEPNS_10error_codeE
000000000012a37c T _ZNSt6__ndk14__fs10filesystem11__copy_fileERKNS1_4pathES4_NS1_12copy_optionsEPNS_10error_codeE
000000000012be24 T _ZNSt6__ndk14__fs10filesystem11__file_sizeERKNS1_4pathEPNS_10error_codeE
000000000012baac T _ZNSt6__ndk14__fs10filesystem12__equivalentERKNS1_4pathES4_PNS_10error_codeE
000000000012c9dc T _ZNSt6__ndk14__fs10filesystem12__remove_allERKNS1_4pathEPNS_10error_codeE
000000000012c174 T _ZNSt6__ndk14__fs10filesystem13__fs_is_emptyERKNS1_4pathEPNS_10error_codeE
000000000012c73c T _ZNSt6__ndk14__fs10filesystem13__permissionsERKNS1_4pathENS1_5permsENS1_12perm_optionsEPNS_10error_codeE
000000000012ce64 T _ZNSt6__ndk14__fs10filesystem13__resize_fileERKNS1_4pathEmPNS_10error_codeE
000000000012a180 T _ZNSt6__ndk14__fs10filesystem14__copy_symlinkERKNS1_4pathES4_PNS_10error_codeE
000000000012b868 T _ZNSt6__ndk14__fs10filesystem14__current_pathEPNS_10error_codeE
000000000012ba10 T _ZNSt6__ndk14__fs10filesystem14__current_pathERKNS1_4pathEPNS_10error_codeE
000000000012af14 T _ZNSt6__ndk14__fs10filesystem14__read_symlinkERKNS1_4pathEPNS_10error_codeE
000000000012f9f8 T _ZNSt6__ndk14__fs10filesystem15directory_entry12__do_refreshEv
00000000001290b4 T _ZNSt6__ndk14__fs10filesystem16_FilesystemClock3nowEv
00000000000799d4 V _ZNSt6__ndk14__fs10filesystem16_FilesystemClock9is_steadyE
000000000012a204 T _ZNSt6__ndk14__fs10filesystem16__create_symlinkERKNS1_4pathES4_PNS_10error_codeE
000000000012d0f0 T _ZNSt6__ndk14__fs10filesystem16__symlink_statusERKNS1_4pathEPNS_10error_codeE
0000000000129220 T _ZNSt6__ndk14__fs10filesystem16filesystem_error13__create_whatEi
00000000001291f4 T _ZNSt6__ndk14__fs10filesystem16filesystem_errorD0Ev
000000000012911c T _ZNSt6__ndk14__fs10filesystem16filesystem_errorD1Ev
000000000012911c T _ZNSt6__ndk14__fs10filesystem16filesystem_errorD2Ev
000000000012c05c T _ZNSt6__ndk14__fs10filesystem17__hard_link_countERKNS1_4pathEPNS_10error_codeE
000000000012c57c T _ZNSt6__ndk14__fs10filesystem17__last_write_timeERKNS1_4pathENS_6chrono10time_pointINS1_16_FilesystemClockENS5_8durationInNS_5ratioILl1ELl1000000000EEEEEEEPNS_10error_codeE
000000000012c36c T _ZNSt6__ndk14__fs10filesystem17__last_write_timeERKNS1_4pathEPNS_10error_codeE
000000000012b3c0 T _ZNSt6__ndk14__fs10filesystem18__create_directoryERKNS1_4pathEPNS_10error_codeE
000000000012a8b4 T _ZNSt6__ndk14__fs10filesystem18__create_directoryERKNS1_4pathES4_PNS_10error_codeE
000000000012a2c0 T _ZNSt6__ndk14__fs10filesystem18__create_hard_linkERKNS1_4pathES4_PNS_10error_codeE
000000000012d464 T _ZNSt6__ndk14__fs10filesystem18__weakly_canonicalERKNS1_4pathEPNS_10error_codeE
0000000000131d88 T _ZNSt6__ndk14__fs10filesystem18directory_iterator11__incrementEPNS_10error_codeE
0000000000131ac8 T _ZNSt6__ndk14__fs10filesystem18directory_iteratorC1ERKNS1_4pathEPNS_10error_codeENS1_17directory_optionsE
0000000000131ac8 T _ZNSt6__ndk14__fs10filesystem18directory_iteratorC2ERKNS1_4pathEPNS_10error_codeENS1_17directory_optionsE
000000000012b02c T _ZNSt6__ndk14__fs10filesystem20__create_directoriesERKNS1_4pathEPNS_10error_codeE
000000000012d184 T _ZNSt6__ndk14__fs10filesystem21__temp_directory_pathEPNS_10error_codeE
000000000012b7ac T _ZNSt6__ndk14__fs10filesystem26__create_directory_symlinkERKNS1_4pathES4_PNS_10error_codeE
0000000000132b94 T _ZNSt6__ndk14__fs10filesystem28recursive_directory_iterator11__incrementEPNS_10error_codeE
0000000000132c1c T _ZNSt6__ndk14__fs10filesystem28recursive_directory_iterator15__try_recursionEPNS_10error_codeE
0000000000132834 T _ZNSt6__ndk14__fs10filesystem28recursive_directory_iterator5__popEPNS_10error_codeE
00000000001328d8 T _ZNSt6__ndk14__fs10filesystem28recursive_directory_iterator9__advanceEPNS_10error_codeE
0000000000132368 T _ZNSt6__ndk14__fs10filesystem28recursive_directory_iteratorC1ERKNS1_4pathENS1_17directory_optionsEPNS_10error_codeE
0000000000132368 T _ZNSt6__ndk14__fs10filesystem28recursive_directory_iteratorC2ERKNS1_4pathENS1_17directory_optionsEPNS_10error_codeE
000000000012e324 T _ZNSt6__ndk14__fs10filesystem4path17replace_extensionERKS2_
00000000000799d5 V _ZNSt6__ndk14__fs10filesystem4path19preferred_separatorE
000000000012f894 T _ZNSt6__ndk14__fs10filesystem4path8iterator11__decrementEv
000000000012f730 T _ZNSt6__ndk14__fs10filesystem4path8iterator11__incrementEv
0000000000129838 T _ZNSt6__ndk14__fs10filesystem6__copyERKNS1_4pathES4_NS1_12copy_optionsEPNS_10error_codeE
000000000012cf14 T _ZNSt6__ndk14__fs10filesystem7__spaceERKNS1_4pathEPNS_10error_codeE
000000000012c940 T _ZNSt6__ndk14__fs10filesystem8__removeERKNS1_4pathEPNS_10error_codeE
000000000012cda8 T _ZNSt6__ndk14__fs10filesystem8__renameERKNS1_4pathES4_PNS_10error_codeE
000000000012d05c T _ZNSt6__ndk14__fs10filesystem8__statusERKNS1_4pathEPNS_10error_codeE
000000000014d408 B _ZNSt6__ndk14cerrE
000000000014d548 B _ZNSt6__ndk14clogE
000000000014d2c8 B _ZNSt6__ndk14coutE
00000000000de6ac T _ZNSt6__ndk14stodERKNS_12basic_stringIcNS_11char_traitsIcEENS_9allocatorIcEEEEPm
00000000000dedf8 T _ZNSt6__ndk14stodERKNS_12basic_stringIwNS_11char_traitsIwEENS_9allocatorIwEEEEPm
00000000000de5d0 T _ZNSt6__ndk14stofERKNS_12basic_stringIcNS_11char_traitsIcEENS_9allocatorIcEEEEPm
00000000000ded14 T _ZNSt6__ndk14stofERKNS_12basic_stringIwNS_11char_traitsIwEENS_9allocatorIwEEEEPm
00000000000de144 T _ZNSt6__ndk14stoiERKNS_12basic_stringIcNS_11char_traitsIcEENS_9allocatorIcEEEEPmi
00000000000de860 T _ZNSt6__ndk14stoiERKNS_12basic_stringIwNS_11char_traitsIwEENS_9allocatorIwEEEEPmi
00000000000de230 T _ZNSt6__ndk14stolERKNS_12basic_stringIcNS_11char_traitsIcEENS_9allocatorIcEEEEPmi
00000000000de954 T _ZNSt6__ndk14stolERKNS_12basic_stringIwNS_11char_traitsIwEENS_9allocatorIwEEEEPmi
000000000014d220 B _ZNSt6__ndk14wcinE
00000000000d3b2c T _ZNSt6__ndk15alignEmmRPvRm
00000000000782a0 R _ZNSt6__ndk15ctypeIcE10table_sizeE
0000000000115e50 T _ZNSt6__ndk15ctypeIcE13classic_tableEv
000000000014da78 B _ZNSt6__ndk15ctypeIcE2idE
000000000011655c T _ZNSt6__ndk15ctypeIcEC1EPKmbm
000000000011655c T _ZNSt6__ndk15ctypeIcEC2EPKmbm
00000000001165e0 T _ZNSt6__ndk15ctypeIcED0Ev
0000000000116594 T _ZNSt6__ndk15ctypeIcED1Ev
0000000000116594 T _ZNSt6__ndk15ctypeIcED2Ev
000000000014da68 B _ZNSt6__ndk15ctypeIwE2idE
0000000000115df8 T _ZNSt6__ndk15ctypeIwED0Ev
0000000000124f04 T _ZNSt6__ndk15ctypeIwED1Ev
0000000000124f04 T _ZNSt6__ndk15ctypeIwED2Ev
00000000000d48a8 T _ZNSt6__ndk15mutex4lockEv
00000000000d48fc T _ZNSt6__ndk15mutex6unlockEv
00000000000d48d4 T _ZNSt6__ndk15mutex8try_lockEv
00000000000d4fd0 T _ZNSt6__ndk15mutexD1Ev
00000000000d4fd0 T _ZNSt6__ndk15mutexD2Ev
00000000000de788 T _ZNSt6__ndk15stoldERKNS_12basic_stringIcNS_11char_traitsIcEENS_9allocatorIcEEEEPm
00000000000deedc T _ZNSt6__ndk15stoldERKNS_12basic_stringIwNS_11char_traitsIwEENS_9allocatorIwEEEEPm
00000000000de3fc T _ZNSt6__ndk15stollERKNS_12basic_stringIcNS_11char_traitsIcEENS_9allocatorIcEEEEPmi
00000000000deb30 T _ZNSt6__ndk15stollERKNS_12basic_stringIwNS_11char_traitsIwEENS_9allocatorIwEEEEPmi
00000000000de314 T _ZNSt6__ndk15stoulERKNS_12basic_stringIcNS_11char_traitsIcEENS_9allocatorIcEEEEPmi
00000000000dea40 T _ZNSt6__ndk15stoulERKNS_12basic_stringIwNS_11char_traitsIwEENS_9allocatorIwEEEEPmi
000000000014d4a8 B _ZNSt6__ndk15wcerrE
000000000014d5e8 B _ZNSt6__ndk15wclogE
000000000014d368 B _ZNSt6__ndk15wcoutE
00000000000f6afc T _ZNSt6__ndk16__clocEv
00000000000cfc6c T _ZNSt6__ndk16__itoa8__u32toaEjPc
00000000000d000c T _ZNSt6__ndk16__itoa8__u64toaEmPc
00000000000b8e44 W _ZNSt6__ndk16__sortIRNS_6__lessIaaEEPaEEvT0_S5_T_
00000000000b7ff8 W _ZNSt6__ndk16__sortIRNS_6__lessIccEEPcEEvT0_S5_T_
00000000000bdcc4 W _ZNSt6__ndk16__sortIRNS_6__lessIddEEPdEEvT0_S5_T_
00000000000be3e4 W _ZNSt6__ndk16__sortIRNS_6__lessIeeEEPeEEvT0_S5_T_
00000000000bd5a4 W _ZNSt6__ndk16__sortIRNS_6__lessIffEEPfEEvT0_S5_T_
00000000000b9580 W _ZNSt6__ndk16__sortIRNS_6__lessIhhEEPhEEvT0_S5_T_
00000000000bab44 W _ZNSt6__ndk16__sortIRNS_6__lessIiiEEPiEEvT0_S5_T_
00000000000bb254 W _ZNSt6__ndk16__sortIRNS_6__lessIjjEEPjEEvT0_S5_T_
00000000000bb964 W _ZNSt6__ndk16__sortIRNS_6__lessIllEEPlEEvT0_S5_T_
00000000000bc074 W _ZNSt6__ndk16__sortIRNS_6__lessImmEEPmEEvT0_S5_T_
00000000000b9cbc W _ZNSt6__ndk16__sortIRNS_6__lessIssEEPsEEvT0_S5_T_
00000000000ba400 W _ZNSt6__ndk16__sortIRNS_6__lessIttEEPtEEvT0_S5_T_
00000000000b8734 W _ZNSt6__ndk16__sortIRNS_6__lessIwwEEPwEEvT0_S5_T_
00000000000bc784 W _ZNSt6__ndk16__sortIRNS_6__lessIxxEEPxEEvT0_S5_T_
00000000000bce94 W _ZNSt6__ndk16__sortIRNS_6__lessIyyEEPyEEvT0_S5_T_
00000000000d1cac T _ZNSt6__ndk16chrono12steady_clock3nowEv
000000000005aca1 V _ZNSt6__ndk16chrono12steady_clock9is_steadyE
00000000000d1c98 T _ZNSt6__ndk16chrono12system_clock11from_time_tEl
00000000000d1bf8 T _ZNSt6__ndk16chrono12system_clock3nowEv
000000000005aca0 V _ZNSt6__ndk16chrono12system_clock9is_steadyE
00000000000d1c70 T _ZNSt6__ndk16chrono12system_clock9to_time_tERKNS0_10time_pointIS1_NS0_8durationIxNS_5ratioILl1ELl1000000EEEEEEE
00000000000d2a7c T _ZNSt6__ndk16futureIvE3getEv
00000000000d29b0 T _ZNSt6__ndk16futureIvEC1EPNS_17__assoc_sub_stateE
00000000000d29b0 T _ZNSt6__ndk16futureIvEC2EPNS_17__assoc_sub_stateE
00000000000d2a28 T _ZNSt6__ndk16futureIvED1Ev
00000000000d2a28 T _ZNSt6__ndk16futureIvED2Ev
00000000000e29ac T _ZNSt6__ndk16gslice6__initEm
0000000000114b3c T _ZNSt6__ndk16locale14__install_ctorERKS0_PNS0_5facetEl
0000000000114f10 T _ZNSt6__ndk16locale2id5__getEv
0000000000115144 T _ZNSt6__ndk16locale2id6__initEv
000000000014da60 B _ZNSt6__ndk16locale2id9__next_idE
0000000000078238 R _ZNSt6__ndk16locale3allE
000000000007821c R _ZNSt6__ndk16locale4noneE
0000000000078230 R _ZNSt6__ndk16locale4timeE
0000000000078224 R _ZNSt6__ndk16locale5ctypeE
0000000000115134 T _ZNSt6__ndk16locale5facet16__on_zero_sharedEv
0000000000115108 T _ZNSt6__ndk16locale5facetD0Ev
0000000000124f04 T _ZNSt6__ndk16locale5facetD1Ev
0000000000124f04 T _ZNSt6__ndk16locale5facetD2Ev
0000000000114bc8 T _ZNSt6__ndk16locale6globalERKS0_
000000000010f050 T _ZNSt6__ndk16locale7classicEv
0000000000078220 R _ZNSt6__ndk16locale7collateE
000000000007822c R _ZNSt6__ndk16locale7numericE
00000000001144b4 T _ZNSt6__ndk16locale8__globalEv
0000000000078234 R _ZNSt6__ndk16locale8messagesE
0000000000078228 R _ZNSt6__ndk16locale8monetaryE
00000000001146c0 T _ZNSt6__ndk16localeC1EPKc
00000000001147e4 T _ZNSt6__ndk16localeC1ERKNS_12basic_stringIcNS_11char_traitsIcEENS_9allocatorIcEEEE
00000000001145d4 T _ZNSt6__ndk16localeC1ERKS0_
0000000000114850 T _ZNSt6__ndk16localeC1ERKS0_PKci
000000000011498c T _ZNSt6__ndk16localeC1ERKS0_RKNS_12basic_stringIcNS_11char_traitsIcEENS_9allocatorIcEEEEi
0000000000114a0c T _ZNSt6__ndk16localeC1ERKS0_S2_i
0000000000114544 T _ZNSt6__ndk16localeC1Ev
00000000001146c0 T _ZNSt6__ndk16localeC2EPKc
00000000001147e4 T _ZNSt6__ndk16localeC2ERKNS_12basic_stringIcNS_11char_traitsIcEENS_9allocatorIcEEEE
00000000001145d4 T _ZNSt6__ndk16localeC2ERKS0_
0000000000114850 T _ZNSt6__ndk16localeC2ERKS0_PKci
000000000011498c T _ZNSt6__ndk16localeC2ERKS0_RKNS_12basic_stringIcNS_11char_traitsIcEENS_9allocatorIcEEEEi
0000000000114a0c T _ZNSt6__ndk16localeC2ERKS0_S2_i
0000000000114544 T _ZNSt6__ndk16localeC2Ev
0000000000114600 T _ZNSt6__ndk16localeD1Ev
0000000000114600 T _ZNSt6__ndk16localeD2Ev
0000000000114650 T _ZNSt6__ndk16localeaSERKS0_
00000000000de4e4 T _ZNSt6__ndk16stoullERKNS_12basic_stringIcNS_11char_traitsIcEENS_9allocatorIcEEEEPmi
00000000000dec20 T _ZNSt6__ndk16stoullERKNS_12basic_stringIwNS_11char_traitsIwEENS_9allocatorIwEEEEPmi
00000000000e2234 T _ZNSt6__ndk16thread20hardware_concurrencyEv
00000000000e21a0 T _ZNSt6__ndk16thread4joinEv
00000000000e21ec T _ZNSt6__ndk16thread6detachEv
00000000000e217c T _ZNSt6__ndk16threadD1Ev
00000000000e217c T _ZNSt6__ndk16threadD2Ev
00000000000c1d04 W _ZNSt6__ndk17__sort5IRNS_6__lessIeeEEPeEEjT0_S5_S5_S5_S5_T_
000000000014dad8 B _ZNSt6__ndk17codecvtIDiDu9mbstate_tE2idE
000000000011956c T _ZNSt6__ndk17codecvtIDiDu9mbstate_tED0Ev
0000000000124f04 T _ZNSt6__ndk17codecvtIDiDu9mbstate_tED1Ev
0000000000124f04 T _ZNSt6__ndk17codecvtIDiDu9mbstate_tED2Ev
000000000014dac8 B _ZNSt6__ndk17codecvtIDic9mbstate_tE2idE
0000000000118d84 T _ZNSt6__ndk17codecvtIDic9mbstate_tED0Ev
0000000000124f04 T _ZNSt6__ndk17codecvtIDic9mbstate_tED1Ev
0000000000124f04 T _ZNSt6__ndk17codecvtIDic9mbstate_tED2Ev
000000000014dab8 B _ZNSt6__ndk17codecvtIDsDu9mbstate_tE2idE
0000000000118c38 T _ZNSt6__ndk17codecvtIDsDu9mbstate_tED0Ev
0000000000124f04 T _ZNSt6__ndk17codecvtIDsDu9mbstate_tED1Ev
0000000000124f04 T _ZNSt6__ndk17codecvtIDsDu9mbstate_tED2Ev
000000000014daa8 B _ZNSt6__ndk17codecvtIDsc9mbstate_tE2idE
000000000011845c T _ZNSt6__ndk17codecvtIDsc9mbstate_tED0Ev
0000000000124f04 T _ZNSt6__ndk17codecvtIDsc9mbstate_tED1Ev
0000000000124f04 T _ZNSt6__ndk17codecvtIDsc9mbstate_tED2Ev
000000000014da88 B _ZNSt6__ndk17codecvtIcc9mbstate_tE2idE
00000000001178a0 T _ZNSt6__ndk17codecvtIcc9mbstate_tED0Ev
0000000000124f04 T _ZNSt6__ndk17codecvtIcc9mbstate_tED1Ev
0000000000124f04 T _ZNSt6__ndk17codecvtIcc9mbstate_tED2Ev
000000000014da98 B _ZNSt6__ndk17codecvtIwc9mbstate_tE2idE
00000000001179ec T _ZNSt6__ndk17codecvtIwc9mbstate_tEC1EPKcm
000000000011793c T _ZNSt6__ndk17codecvtIwc9mbstate_tEC1Em
00000000001179ec T _ZNSt6__ndk17codecvtIwc9mbstate_tEC2EPKcm
000000000011793c T _ZNSt6__ndk17codecvtIwc9mbstate_tEC2Em
0000000000117ae0 T _ZNSt6__ndk17codecvtIwc9mbstate_tED0Ev
0000000000124800 T _ZNSt6__ndk17codecvtIwc9mbstate_tED1Ev
0000000000124800 T _ZNSt6__ndk17codecvtIwc9mbstate_tED2Ev
000000000014d920 V _ZNSt6__ndk17collateIcE2idE
00000000000f24cc W _ZNSt6__ndk17collateIcED0Ev
00000000000f24c4 W _ZNSt6__ndk17collateIcED1Ev
00000000000f24c4 W _ZNSt6__ndk17collateIcED2Ev
000000000014d930 V _ZNSt6__ndk17collateIwE2idE
00000000000f2644 W _ZNSt6__ndk17collateIwED0Ev
00000000000f263c W _ZNSt6__ndk17collateIwED1Ev
00000000000f263c W _ZNSt6__ndk17collateIwED2Ev
000000000014d940 V _ZNSt6__ndk17num_getIcNS_19istreambuf_iteratorIcNS_11char_traitsIcEEEEE2idE
000000000014d950 V _ZNSt6__ndk17num_getIwNS_19istreambuf_iteratorIwNS_11char_traitsIwEEEEE2idE
000000000014d960 V _ZNSt6__ndk17num_putIcNS_19ostreambuf_iteratorIcNS_11char_traitsIcEEEEE2idE
000000000014d970 V _ZNSt6__ndk17num_putIwNS_19ostreambuf_iteratorIwNS_11char_traitsIwEEEEE2idE
00000000000d2ce4 T _ZNSt6__ndk17promiseIvE10get_futureEv
00000000000d2dac T _ZNSt6__ndk17promiseIvE13set_exceptionESt13exception_ptr
00000000000d2e0c T _ZNSt6__ndk17promiseIvE24set_value_at_thread_exitEv
00000000000d2e34 T _ZNSt6__ndk17promiseIvE28set_exception_at_thread_exitESt13exception_ptr
00000000000d2d10 T _ZNSt6__ndk17promiseIvE9set_valueEv
00000000000d2b08 T _ZNSt6__ndk17promiseIvEC1Ev
00000000000d2b08 T _ZNSt6__ndk17promiseIvEC2Ev
00000000000d2b5c T _ZNSt6__ndk17promiseIvED1Ev
00000000000d2b5c T _ZNSt6__ndk17promiseIvED2Ev
00000000000d528c T _ZNSt6__ndk18__rs_getEv
00000000000d3a90 T _ZNSt6__ndk18__sp_mut4lockEv
00000000000d3ab4 T _ZNSt6__ndk18__sp_mut6unlockEv
0000000000077a68 R _ZNSt6__ndk18ios_base10floatfieldE
0000000000077a44 R _ZNSt6__ndk18ios_base10scientificE
0000000000077a60 R _ZNSt6__ndk18ios_base11adjustfieldE
00000000000e3bcc T _ZNSt6__ndk18ios_base15sync_with_stdioEb
00000000000e3098 T _ZNSt6__ndk18ios_base16__call_callbacksENS0_5eventE
00000000000e33ec T _ZNSt6__ndk18ios_base17register_callbackEPFvNS0_5eventERS0_iEi
0000000000077a88 R _ZNSt6__ndk18ios_base2inE
00000000000e3b6c T _ZNSt6__ndk18ios_base33__set_badbit_and_consider_rethrowEv
00000000000e3b9c T _ZNSt6__ndk18ios_base34__set_failbit_and_consider_rethrowEv
0000000000077a7c R _ZNSt6__ndk18ios_base3appE
0000000000077a80 R _ZNSt6__ndk18ios_base3ateE
0000000000077a28 R _ZNSt6__ndk18ios_base3decE
0000000000077a30 R _ZNSt6__ndk18ios_base3hexE
0000000000077a3c R _ZNSt6__ndk18ios_base3octE
0000000000077a8c R _ZNSt6__ndk18ios_base3outE
00000000000f1738 T _ZNSt6__ndk18ios_base4InitC1Ev
00000000000f1738 T _ZNSt6__ndk18ios_base4InitC2Ev
00000000000f17c8 T _ZNSt6__ndk18ios_base4InitD1Ev
00000000000f17c8 T _ZNSt6__ndk18ios_base4InitD2Ev
00000000000e3684 T _ZNSt6__ndk18ios_base4initEPv
0000000000077a38 R _ZNSt6__ndk18ios_base4leftE
00000000000e39a0 T _ZNSt6__ndk18ios_base4moveERS0_
00000000000e3a3c T _ZNSt6__ndk18ios_base4swapERS0_
00000000000e3584 T _ZNSt6__ndk18ios_base5clearEj
0000000000077a2c R _ZNSt6__ndk18ios_base5fixedE
00000000000e30f8 T _ZNSt6__ndk18ios_base5imbueERKNS_6localeE
00000000000e31c4 T _ZNSt6__ndk18ios_base5iwordEi
00000000000e32d8 T _ZNSt6__ndk18ios_base5pwordEi
0000000000077a40 R _ZNSt6__ndk18ios_base5rightE
0000000000077a90 R _ZNSt6__ndk18ios_base5truncE
0000000000077a6c R _ZNSt6__ndk18ios_base6badbitE
0000000000077a84 R _ZNSt6__ndk18ios_base6binaryE
0000000000077a70 R _ZNSt6__ndk18ios_base6eofbitE
0000000000077a54 R _ZNSt6__ndk18ios_base6skipwsE
00000000000e319c T _ZNSt6__ndk18ios_base6xallocEv
00000000000e36d0 T _ZNSt6__ndk18ios_base7copyfmtERKS0_
0000000000077a74 R _ZNSt6__ndk18ios_base7failbitE
00000000000e3024 T _ZNSt6__ndk18ios_base7failureC1EPKcRKNS_10error_codeE
00000000000e2fe4 T _ZNSt6__ndk18ios_base7failureC1ERKNS_12basic_stringIcNS_11char_traitsIcEENS_9allocatorIcEEEERKNS_10error_codeE
00000000000e3024 T _ZNSt6__ndk18ios_base7failureC2EPKcRKNS_10error_codeE
00000000000e2fe4 T _ZNSt6__ndk18ios_base7failureC2ERKNS_12basic_stringIcNS_11char_traitsIcEENS_9allocatorIcEEEERKNS_10error_codeE
00000000000e306c T _ZNSt6__ndk18ios_base7failureD0Ev
00000000000e3064 T _ZNSt6__ndk18ios_base7failureD1Ev
00000000000e3064 T _ZNSt6__ndk18ios_base7failureD2Ev
0000000000077a78 R _ZNSt6__ndk18ios_base7goodbitE
0000000000077a50 R _ZNSt6__ndk18ios_base7showposE
0000000000077a58 R _ZNSt6__ndk18ios_base7unitbufE
0000000000077a34 R _ZNSt6__ndk18ios_base8internalE
0000000000077a48 R _ZNSt6__ndk18ios_base8showbaseE
000000000014d160 B _ZNSt6__ndk18ios_base9__xindex_E
0000000000077a64 R _ZNSt6__ndk18ios_base9basefieldE
0000000000077a24 R _ZNSt6__ndk18ios_base9boolalphaE
0000000000077a4c R _ZNSt6__ndk18ios_base9showpointE
0000000000077a5c R _ZNSt6__ndk18ios_base9uppercaseE
00000000000e3558 T _ZNSt6__ndk18ios_baseD0Ev
00000000000e34cc T _ZNSt6__ndk18ios_baseD1Ev
00000000000e34cc T _ZNSt6__ndk18ios_baseD2Ev
000000000014da40 V _ZNSt6__ndk18messagesIcE2idE
000000000014da50 V _ZNSt6__ndk18messagesIwE2idE
000000000014dae8 B _ZNSt6__ndk18numpunctIcE2idE
000000000011b908 T _ZNSt6__ndk18numpunctIcEC1Em
000000000011b908 T _ZNSt6__ndk18numpunctIcEC2Em
000000000011b9ac T _ZNSt6__ndk18numpunctIcED0Ev
000000000011b964 T _ZNSt6__ndk18numpunctIcED1Ev
000000000011b964 T _ZNSt6__ndk18numpunctIcED2Ev
000000000014daf8 B _ZNSt6__ndk18numpunctIwE2idE
000000000011b934 T _ZNSt6__ndk18numpunctIwEC1Em
000000000011b934 T _ZNSt6__ndk18numpunctIwEC2Em
000000000011ba20 T _ZNSt6__ndk18numpunctIwED0Ev
000000000011b9d8 T _ZNSt6__ndk18numpunctIwED1Ev
000000000011b9d8 T _ZNSt6__ndk18numpunctIwED2Ev
000000000014d980 V _ZNSt6__ndk18time_getIcNS_19istreambuf_iteratorIcNS_11char_traitsIcEEEEE2idE
000000000014d990 V _ZNSt6__ndk18time_getIwNS_19istreambuf_iteratorIwNS_11char_traitsIwEEEEE2idE
000000000014d9a0 V _ZNSt6__ndk18time_putIcNS_19ostreambuf_iteratorIcNS_11char_traitsIcEEEEE2idE
000000000014d9b0 V _ZNSt6__ndk18time_putIwNS_19ostreambuf_iteratorIwNS_11char_traitsIwEEEEE2idE
00000000000d0294 T _ZNSt6__ndk18to_charsEPcS0_d
00000000000d0698 T _ZNSt6__ndk18to_charsEPcS0_dNS_12chars_formatE
00000000000d0b44 T _ZNSt6__ndk18to_charsEPcS0_dNS_12chars_formatEi
00000000000d03f4 T _ZNSt6__ndk18to_charsEPcS0_e
00000000000d07f4 T _ZNSt6__ndk18to_charsEPcS0_eNS_12chars_formatE
00000000000d0d28 T _ZNSt6__ndk18to_charsEPcS0_eNS_12chars_formatEi
00000000000d0138 T _ZNSt6__ndk18to_charsEPcS0_f
00000000000d0540 T _ZNSt6__ndk18to_charsEPcS0_fNS_12chars_formatE
00000000000d095c T _ZNSt6__ndk18to_charsEPcS0_fNS_12chars_formatEi
00000000000e28d8 W _ZNSt6__ndk18valarrayImE6resizeEmm
00000000000e280c W _ZNSt6__ndk18valarrayImEC1Em
00000000000e280c W _ZNSt6__ndk18valarrayImEC2Em
00000000000e2874 W _ZNSt6__ndk18valarrayImED1Ev
00000000000e2874 W _ZNSt6__ndk18valarrayImED2Ev
00000000000f672c W _ZNSt6__ndk19__num_getIcE17__stage2_int_loopEciPcRS2_RjcRKNS_12basic_stringIcNS_11char_traitsIcEENS_9allocatorIcEEEEPjRSD_S2_
00000000000fb418 W _ZNSt6__ndk19__num_getIcE17__stage2_int_prepERNS_8ios_baseEPcRc
00000000000fb00c W _ZNSt6__ndk19__num_getIcE19__stage2_float_loopEcRbRcPcRS4_ccRKNS_12basic_stringIcNS_11char_traitsIcEENS_9allocatorIcEEEEPjRSE_RjS4_
00000000000fae5c W _ZNSt6__ndk19__num_getIcE19__stage2_float_prepERNS_8ios_baseEPcRcS5_
00000000000faae0 W _ZNSt6__ndk19__num_getIwE17__stage2_int_loopEwiPcRS2_RjwRKNS_12basic_stringIcNS_11char_traitsIcEENS_9allocatorIcEEEEPjRSD_Pw
00000000000fbbd4 W _ZNSt6__ndk19__num_getIwE17__stage2_int_prepERNS_8ios_baseEPwRw
00000000000fb750 W _ZNSt6__ndk19__num_getIwE19__stage2_float_loopEwRbRcPcRS4_wwRKNS_12basic_stringIcNS_11char_traitsIcEENS_9allocatorIcEEEEPjRSE_RjPw
00000000000fb5a0 W _ZNSt6__ndk19__num_getIwE19__stage2_float_prepERNS_8ios_baseEPwRwS5_
00000000000fef94 W _ZNSt6__ndk19__num_putIcE21__widen_and_group_intEPcS2_S2_S2_RS2_S3_RKNS_6localeE
00000000000ff3a4 W _ZNSt6__ndk19__num_putIcE23__widen_and_group_floatEPcS2_S2_S2_RS2_S3_RKNS_6localeE
00000000000ff9d8 W _ZNSt6__ndk19__num_putIwE21__widen_and_group_intEPcS2_S2_PwRS3_S4_RKNS_6localeE
00000000000ffde4 W _ZNSt6__ndk19__num_putIwE23__widen_and_group_floatEPcS2_S2_PwRS3_S4_RKNS_6localeE
00000000000e3c44 W _ZNSt6__ndk19basic_iosIcNS_11char_traitsIcEEE7copyfmtERKS3_
00000000000e3c18 W _ZNSt6__ndk19basic_iosIcNS_11char_traitsIcEEED0Ev
00000000000e3c10 W _ZNSt6__ndk19basic_iosIcNS_11char_traitsIcEEED1Ev
00000000000e3c10 W _ZNSt6__ndk19basic_iosIcNS_11char_traitsIcEEED2Ev
00000000000e8f0c W _ZNSt6__ndk19basic_iosIwNS_11char_traitsIwEEE7copyfmtERKS3_
00000000000e8ee0 W _ZNSt6__ndk19basic_iosIwNS_11char_traitsIwEEED0Ev
00000000000e8ed8 W _ZNSt6__ndk19basic_iosIwNS_11char_traitsIwEEED1Ev
00000000000e8ed8 W _ZNSt6__ndk19basic_iosIwNS_11char_traitsIwEEED2Ev
000000000014da00 V _ZNSt6__ndk19money_getIcNS_19istreambuf_iteratorIcNS_11char_traitsIcEEEEE2idE
0000000000105d68 W _ZNSt6__ndk19money_getIcNS_19istreambuf_iteratorIcNS_11char_traitsIcEEEEE8__do_getERS4_S4_bRKNS_6localeEjRjRbRKNS_5ctypeIcEERNS_10unique_ptrIcPFvPvEEERPcSM_
000000000014da10 V _ZNSt6__ndk19money_getIwNS_19istreambuf_iteratorIwNS_11char_traitsIwEEEEE2idE
0000000000107efc W _ZNSt6__ndk19money_getIwNS_19istreambuf_iteratorIwNS_11char_traitsIwEEEEE8__do_getERS4_S4_bRKNS_6localeEjRjRbRKNS_5ctypeIwEERNS_10unique_ptrIwPFvPvEEERPwSM_
000000000014da20 V _ZNSt6__ndk19money_putIcNS_19ostreambuf_iteratorIcNS_11char_traitsIcEEEEE2idE
000000000014da30 V _ZNSt6__ndk19money_putIwNS_19ostreambuf_iteratorIwNS_11char_traitsIwEEEEE2idE
0000000000128f60 T _ZNSt6__ndk19strstreamD0Ev
0000000000128e24 T _ZNSt6__ndk19strstreamD1Ev
0000000000128dd0 T _ZNSt6__ndk19strstreamD2Ev
00000000000e0844 T _ZNSt6__ndk19to_stringEd
00000000000e09e0 T _ZNSt6__ndk19to_stringEe
00000000000e06a4 T _ZNSt6__ndk19to_stringEf
00000000000defbc T _ZNSt6__ndk19to_stringEi
00000000000df50c T _ZNSt6__ndk19to_stringEj
00000000000df0ec T _ZNSt6__ndk19to_stringEl
00000000000df5c8 T _ZNSt6__ndk19to_stringEm
00000000000df2fc T _ZNSt6__ndk19to_stringEx
00000000000df774 T _ZNSt6__ndk19to_stringEy
00000000000ddf84 W _ZNSt6__ndk1plIcNS_11char_traitsIcEENS_9allocatorIcEEEENS_12basic_stringIT_T0_T1_EEPKS6_RKS9_
000000000009dbc8 T _ZNSt8bad_castC1Ev
000000000009dbc8 T _ZNSt8bad_castC2Ev
000000000009dbe8 T _ZNSt8bad_castD0Ev
000000000009dbe0 T _ZNSt8bad_castD1Ev
000000000009dbe0 T _ZNSt8bad_castD2Ev
000000000009d870 T _ZNSt9bad_allocC1Ev
000000000009d870 T _ZNSt9bad_allocC2Ev
000000000009d888 T _ZNSt9bad_allocD0Ev
000000000009d7f0 T _ZNSt9bad_allocD1Ev
000000000009d7f0 T _ZNSt9bad_allocD2Ev
000000000009d7f8 T _ZNSt9exceptionD0Ev
000000000009d7f0 T _ZNSt9exceptionD1Ev
000000000009d7f0 T _ZNSt9exceptionD2Ev
000000000009db9c T _ZNSt9type_infoD0Ev
000000000009db94 T _ZNSt9type_infoD1Ev
000000000009db94 T _ZNSt9type_infoD2Ev
000000000009ce98 T _ZSt10unexpectedv
000000000009ceb4 T _ZSt13get_terminatev
000000000009caf0 T _ZSt13set_terminatePFvvE
000000000009ce28 T _ZSt14get_unexpectedv
000000000009caa8 T _ZSt14set_unexpectedPFvvE
000000000009cef8 T _ZSt15get_new_handlerv
000000000009cb24 T _ZSt15set_new_handlerPFvvE
00000000000d4ff0 T _ZSt17__throw_bad_allocv
00000000000d1fbc T _ZSt17current_exceptionv
00000000000d2084 T _ZSt17rethrow_exceptionSt13exception_ptr
00000000000d1ee0 T _ZSt18uncaught_exceptionv
00000000000d1f04 T _ZSt19uncaught_exceptionsv
000000000005b01b R _ZSt7nothrow
000000000009ce3c T _ZSt9terminatev
0000000000144840 D _ZTCNSt6__ndk110istrstreamE0_NS_13basic_istreamIcNS_11char_traitsIcEEEE
00000000001448a8 D _ZTCNSt6__ndk110ostrstreamE0_NS_13basic_ostreamIcNS_11char_traitsIcEEEE
0000000000141328 V _ZTCNSt6__ndk114basic_ifstreamIcNS_11char_traitsIcEEEE0_NS_13basic_istreamIcS2_EE
0000000000140d88 V _ZTCNSt6__ndk114basic_iostreamIcNS_11char_traitsIcEEEE0_NS_13basic_istreamIcS2_EE
0000000000140dd8 V _ZTCNSt6__ndk114basic_iostreamIcNS_11char_traitsIcEEEE16_NS_13basic_ostreamIcS2_EE
0000000000141400 V _ZTCNSt6__ndk114basic_ofstreamIcNS_11char_traitsIcEEEE0_NS_13basic_ostreamIcS2_EE
0000000000141050 V _ZTCNSt6__ndk118basic_stringstreamIcNS_11char_traitsIcEENS_9allocatorIcEEEE0_NS_13basic_istreamIcS2_EE
0000000000140fd8 V _ZTCNSt6__ndk118basic_stringstreamIcNS_11char_traitsIcEENS_9allocatorIcEEEE0_NS_14basic_iostreamIcS2_EE
00000000001410a0 V _ZTCNSt6__ndk118basic_stringstreamIcNS_11char_traitsIcEENS_9allocatorIcEEEE16_NS_13basic_ostreamIcS2_EE
0000000000141250 V _ZTCNSt6__ndk119basic_istringstreamIcNS_11char_traitsIcEENS_9allocatorIcEEEE0_NS_13basic_istreamIcS2_EE
0000000000141178 V _ZTCNSt6__ndk119basic_ostringstreamIcNS_11char_traitsIcEENS_9allocatorIcEEEE0_NS_13basic_ostreamIcS2_EE
0000000000144988 D _ZTCNSt6__ndk19strstreamE0_NS_13basic_istreamIcNS_11char_traitsIcEEEE
0000000000144910 D _ZTCNSt6__ndk19strstreamE0_NS_14basic_iostreamIcNS_11char_traitsIcEEEE
00000000001449d8 D _ZTCNSt6__ndk19strstreamE16_NS_13basic_ostreamIcNS_11char_traitsIcEEEE
000000000013d598 D _ZTIDh
000000000013d7c8 D _ZTIDi
000000000013d098 D _ZTIDn
000000000013d778 D _ZTIDs
000000000013d728 D _ZTIDu
000000000013d8d8 D _ZTIN10__cxxabiv116__enum_type_infoE
000000000013cf30 D _ZTIN10__cxxabiv116__shim_type_infoE
000000000013d850 D _ZTIN10__cxxabiv117__array_type_infoE
000000000013cf48 D _ZTIN10__cxxabiv117__class_type_infoE
000000000013cf60 D _ZTIN10__cxxabiv117__pbase_type_infoE
000000000013cf78 D _ZTIN10__cxxabiv119__pointer_type_infoE
000000000013cf90 D _ZTIN10__cxxabiv120__function_type_infoE
000000000013d990 D _ZTIN10__cxxabiv120__si_class_type_infoE
000000000013d9f8 D _ZTIN10__cxxabiv121__vmi_class_type_infoE
000000000013d030 D _ZTIN10__cxxabiv123__fundamental_type_infoE
000000000013cfa8 D _ZTIN10__cxxabiv129__pointer_to_member_type_infoE
00000000001401a0 D _ZTINSt12experimental15fundamentals_v112bad_any_castE
0000000000140628 D _ZTINSt12experimental19bad_optional_accessE
0000000000142e70 V _ZTINSt6__ndk110__time_getE
0000000000143030 V _ZTINSt6__ndk110__time_putE
0000000000141b48 V _ZTINSt6__ndk110ctype_baseE
0000000000144890 D _ZTINSt6__ndk110istrstreamE
00000000001431e0 V _ZTINSt6__ndk110money_baseE
00000000001431f0 V _ZTINSt6__ndk110moneypunctIcLb0EEE
0000000000143298 V _ZTINSt6__ndk110moneypunctIcLb1EEE
0000000000143340 V _ZTINSt6__ndk110moneypunctIwLb0EEE
00000000001433e8 V _ZTINSt6__ndk110moneypunctIwLb1EEE
00000000001448f8 D _ZTINSt6__ndk110ostrstreamE
0000000000143678 V _ZTINSt6__ndk111__money_getIcEE
00000000001436f8 V _ZTINSt6__ndk111__money_getIwEE
0000000000143778 V _ZTINSt6__ndk111__money_putIcEE
00000000001437f8 V _ZTINSt6__ndk111__money_putIwEE
00000000001445e8 D _ZTINSt6__ndk111regex_errorE
0000000000140338 D _ZTINSt6__ndk112bad_weak_ptrE
0000000000141bf0 V _ZTINSt6__ndk112codecvt_baseE
0000000000142700 D _ZTINSt6__ndk112ctype_bynameIcEE
0000000000142718 D _ZTINSt6__ndk112ctype_bynameIwEE
0000000000140298 D _ZTINSt6__ndk112future_errorE
0000000000144828 D _ZTINSt6__ndk112strstreambufE
00000000001406b0 D _ZTINSt6__ndk112system_errorE
0000000000141468 V _ZTINSt6__ndk113basic_filebufIcNS_11char_traitsIcEEEE
0000000000140d38 V _ZTINSt6__ndk113basic_istreamIcNS_11char_traitsIcEEEE
0000000000140ea8 V _ZTINSt6__ndk113basic_istreamIwNS_11char_traitsIwEEEE
0000000000140d60 V _ZTINSt6__ndk113basic_ostreamIcNS_11char_traitsIcEEEE
0000000000140ed0 V _ZTINSt6__ndk113basic_ostreamIwNS_11char_traitsIwEEEE
0000000000143880 V _ZTINSt6__ndk113messages_baseE
0000000000142200 D _ZTINSt6__ndk114__codecvt_utf8IDiEE
0000000000142188 D _ZTINSt6__ndk114__codecvt_utf8IDsEE
0000000000142110 D _ZTINSt6__ndk114__codecvt_utf8IwEE
0000000000142890 V _ZTINSt6__ndk114__num_get_baseE
0000000000142a48 V _ZTINSt6__ndk114__num_put_baseE
0000000000140378 D _ZTINSt6__ndk114__shared_countE
0000000000141378 V _ZTINSt6__ndk114basic_ifstreamIcNS_11char_traitsIcEEEE
0000000000140e28 V _ZTINSt6__ndk114basic_iostreamIcNS_11char_traitsIcEEEE
0000000000141450 V _ZTINSt6__ndk114basic_ofstreamIcNS_11char_traitsIcEEEE
0000000000143ca8 V _ZTINSt6__ndk114codecvt_bynameIDiDu9mbstate_tEE
0000000000143bb8 V _ZTINSt6__ndk114codecvt_bynameIDic9mbstate_tEE
0000000000143c30 V _ZTINSt6__ndk114codecvt_bynameIDsDu9mbstate_tEE
0000000000143b40 V _ZTINSt6__ndk114codecvt_bynameIDsc9mbstate_tEE
0000000000143a50 V _ZTINSt6__ndk114codecvt_bynameIcc9mbstate_tEE
0000000000143ac8 V _ZTINSt6__ndk114codecvt_bynameIwc9mbstate_tEE
0000000000142680 D _ZTINSt6__ndk114collate_bynameIcEE
00000000001426b0 D _ZTINSt6__ndk114collate_bynameIwEE
00000000001406c8 D _ZTINSt6__ndk114error_categoryE
0000000000142458 D _ZTINSt6__ndk115__codecvt_utf16IDiLb0EEE
00000000001424d0 D _ZTINSt6__ndk115__codecvt_utf16IDiLb1EEE
0000000000142368 D _ZTINSt6__ndk115__codecvt_utf16IDsLb0EEE
00000000001423e0 D _ZTINSt6__ndk115__codecvt_utf16IDsLb1EEE
0000000000142278 D _ZTINSt6__ndk115__codecvt_utf16IwLb0EEE
00000000001422f0 D _ZTINSt6__ndk115__codecvt_utf16IwLb1EEE
0000000000140d28 V _ZTINSt6__ndk115basic_streambufIcNS_11char_traitsIcEEEE
0000000000140e98 V _ZTINSt6__ndk115basic_streambufIwNS_11char_traitsIwEEEE
0000000000140ef8 V _ZTINSt6__ndk115basic_stringbufIcNS_11char_traitsIcEENS_9allocatorIcEEEE
0000000000143980 V _ZTINSt6__ndk115messages_bynameIcEE
00000000001439d8 V _ZTINSt6__ndk115messages_bynameIwEE
0000000000142760 D _ZTINSt6__ndk115numpunct_bynameIcEE
0000000000142778 D _ZTINSt6__ndk115numpunct_bynameIwEE
0000000000142e98 V _ZTINSt6__ndk115time_get_bynameIcNS_19istreambuf_iteratorIcNS_11char_traitsIcEEEEEE
0000000000142fc8 V _ZTINSt6__ndk115time_get_bynameIwNS_19istreambuf_iteratorIwNS_11char_traitsIwEEEEEE
0000000000143110 V _ZTINSt6__ndk115time_put_bynameIcNS_19ostreambuf_iteratorIcNS_11char_traitsIcEEEEEE
0000000000143158 V _ZTINSt6__ndk115time_put_bynameIwNS_19ostreambuf_iteratorIwNS_11char_traitsIwEEEEEE
0000000000141ef8 D _ZTINSt6__ndk116__narrow_to_utf8ILm16EEE
0000000000141f70 D _ZTINSt6__ndk116__narrow_to_utf8ILm32EEE
00000000001402e0 D _ZTINSt6__ndk117__assoc_sub_stateE
0000000000141fe8 D _ZTINSt6__ndk117__widen_from_utf8ILm16EEE
0000000000142060 D _ZTINSt6__ndk117__widen_from_utf8ILm32EEE
0000000000140210 D _ZTINSt6__ndk117bad_function_callE
0000000000143490 V _ZTINSt6__ndk117moneypunct_bynameIcLb0EEE
0000000000143518 V _ZTINSt6__ndk117moneypunct_bynameIcLb1EEE
00000000001435a0 V _ZTINSt6__ndk117moneypunct_bynameIwLb0EEE
0000000000143628 V _ZTINSt6__ndk117moneypunct_bynameIwLb1EEE
0000000000142e80 V _ZTINSt6__ndk118__time_get_storageIcEE
0000000000142fb0 V _ZTINSt6__ndk118__time_get_storageIwEE
00000000001410f0 V _ZTINSt6__ndk118basic_stringstreamIcNS_11char_traitsIcEENS_9allocatorIcEEEE
00000000001403c0 D _ZTINSt6__ndk119__shared_weak_countE
00000000001412a0 V _ZTINSt6__ndk119basic_istringstreamIcNS_11char_traitsIcEENS_9allocatorIcEEEE
00000000001411c8 V _ZTINSt6__ndk119basic_ostringstreamIcNS_11char_traitsIcEENS_9allocatorIcEEEE
00000000001425c0 D _ZTINSt6__ndk120__codecvt_utf8_utf16IDiEE
0000000000142638 D _ZTINSt6__ndk120__codecvt_utf8_utf16IDsEE
0000000000142548 D _ZTINSt6__ndk120__codecvt_utf8_utf16IwEE
0000000000142c38 V _ZTINSt6__ndk120__time_get_c_storageIcEE
0000000000142d38 V _ZTINSt6__ndk120__time_get_c_storageIwEE
00000000001404c8 D _ZTINSt6__ndk13pmr15memory_resourceE
00000000001404d8 D _ZTINSt6__ndk13pmr25monotonic_buffer_resourceE
00000000001405a8 V _ZTINSt6__ndk13pmr26__null_memory_resource_impE
0000000000140578 D _ZTINSt6__ndk13pmr26synchronized_pool_resourceE
0000000000140528 D _ZTINSt6__ndk13pmr28unsynchronized_pool_resourceE
0000000000140590 V _ZTINSt6__ndk13pmr32__new_delete_memory_resource_impE
0000000000144a68 D _ZTINSt6__ndk14__fs10filesystem16filesystem_errorE
00000000001426c8 D _ZTINSt6__ndk15ctypeIcEE
0000000000141b58 D _ZTINSt6__ndk15ctypeIwEE
0000000000141aa8 D _ZTINSt6__ndk16locale5facetE
0000000000141e60 D _ZTINSt6__ndk17codecvtIDiDu9mbstate_tEE
0000000000141dc8 D _ZTINSt6__ndk17codecvtIDic9mbstate_tEE
0000000000141d30 D _ZTINSt6__ndk17codecvtIDsDu9mbstate_tEE
0000000000141c98 D _ZTINSt6__ndk17codecvtIDsc9mbstate_tEE
0000000000141c00 D _ZTINSt6__ndk17codecvtIcc9mbstate_tEE
00000000001420d8 D _ZTINSt6__ndk17codecvtIwc9mbstate_tEE
0000000000142668 V _ZTINSt6__ndk17collateIcEE
0000000000142698 V _ZTINSt6__ndk17collateIwEE
00000000001428c8 V _ZTINSt6__ndk17num_getIcNS_19istreambuf_iteratorIcNS_11char_traitsIcEEEEEE
00000000001429a8 V _ZTINSt6__ndk17num_getIwNS_19istreambuf_iteratorIwNS_11char_traitsIwEEEEEE
0000000000142a80 V _ZTINSt6__ndk17num_putIcNS_19ostreambuf_iteratorIcNS_11char_traitsIcEEEEEE
0000000000142b48 V _ZTINSt6__ndk17num_putIwNS_19ostreambuf_iteratorIwNS_11char_traitsIwEEEEEE
0000000000140890 D _ZTINSt6__ndk18ios_base7failureE
0000000000140880 D _ZTINSt6__ndk18ios_baseE
0000000000143890 V _ZTINSt6__ndk18messagesIcEE
0000000000143908 V _ZTINSt6__ndk18messagesIwEE
0000000000142730 D _ZTINSt6__ndk18numpunctIcEE
0000000000142748 D _ZTINSt6__ndk18numpunctIwEE
0000000000142c48 V _ZTINSt6__ndk18time_getIcNS_19istreambuf_iteratorIcNS_11char_traitsIcEEEEEE
0000000000142d48 V _ZTINSt6__ndk18time_getIwNS_19istreambuf_iteratorIwNS_11char_traitsIwEEEEEE
0000000000143040 V _ZTINSt6__ndk18time_putIcNS_19ostreambuf_iteratorIcNS_11char_traitsIcEEEEEE
00000000001430a8 V _ZTINSt6__ndk18time_putIwNS_19ostreambuf_iteratorIwNS_11char_traitsIwEEEEEE
00000000001428a0 V _ZTINSt6__ndk19__num_getIcEE
0000000000142980 V _ZTINSt6__ndk19__num_getIwEE
0000000000142a58 V _ZTINSt6__ndk19__num_putIcEE
0000000000142b20 V _ZTINSt6__ndk19__num_putIwEE
0000000000140d10 V _ZTINSt6__ndk19basic_iosIcNS_11char_traitsIcEEEE
0000000000140e80 V _ZTINSt6__ndk19basic_iosIwNS_11char_traitsIwEEEE
0000000000143688 V _ZTINSt6__ndk19money_getIcNS_19istreambuf_iteratorIcNS_11char_traitsIcEEEEEE
0000000000143708 V _ZTINSt6__ndk19money_getIwNS_19istreambuf_iteratorIwNS_11char_traitsIwEEEEEE
0000000000143788 V _ZTINSt6__ndk19money_putIcNS_19ostreambuf_iteratorIcNS_11char_traitsIcEEEEEE
0000000000143808 V _ZTINSt6__ndk19money_putIwNS_19ostreambuf_iteratorIwNS_11char_traitsIwEEEEEE
0000000000144a28 D _ZTINSt6__ndk19strstreamE
0000000000142c28 V _ZTINSt6__ndk19time_baseE
000000000013d5a8 D _ZTIPDh
000000000013d7d8 D _ZTIPDi
000000000013d0a8 D _ZTIPDn
000000000013d788 D _ZTIPDs
000000000013d738 D _ZTIPDu
000000000013d5c8 D _ZTIPKDh
000000000013d7f8 D _ZTIPKDi
000000000013d0c8 D _ZTIPKDn
000000000013d7a8 D _ZTIPKDs
000000000013d758 D _ZTIPKDu
000000000013d258 D _ZTIPKa
000000000013d118 D _ZTIPKb
000000000013d1b8 D _ZTIPKc
000000000013d668 D _ZTIPKd
000000000013d6b8 D _ZTIPKe
000000000013d618 D _ZTIPKf
000000000013d708 D _ZTIPKg
000000000013d208 D _ZTIPKh
000000000013d348 D _ZTIPKi
000000000013d398 D _ZTIPKj
000000000013d3e8 D _ZTIPKl
000000000013d438 D _ZTIPKm
000000000013d528 D _ZTIPKn
000000000013d578 D _ZTIPKo
000000000013d2a8 D _ZTIPKs
000000000013d2f8 D _ZTIPKt
000000000013d078 D _ZTIPKv
000000000013d168 D _ZTIPKw
000000000013d488 D _ZTIPKx
000000000013d4d8 D _ZTIPKy
000000000013d238 D _ZTIPa
000000000013d0f8 D _ZTIPb
000000000013d198 D _ZTIPc
000000000013d648 D _ZTIPd
000000000013d698 D _ZTIPe
000000000013d5f8 D _ZTIPf
000000000013d6e8 D _ZTIPg
000000000013d1e8 D _ZTIPh
000000000013d328 D _ZTIPi
000000000013d378 D _ZTIPj
000000000013d3c8 D _ZTIPl
000000000013d418 D _ZTIPm
000000000013d508 D _ZTIPn
000000000013d558 D _ZTIPo
000000000013d288 D _ZTIPs
000000000013d2d8 D _ZTIPt
000000000013d058 D _ZTIPv
000000000013d148 D _ZTIPw
000000000013d468 D _ZTIPx
000000000013d4b8 D _ZTIPy
000000000013cf18 D _ZTISt10bad_typeid
000000000013ccb8 D _ZTISt11logic_error
000000000013cde8 D _ZTISt11range_error
0000000000140160 D _ZTISt12bad_any_cast
000000000013ccd0 D _ZTISt12domain_error
000000000013cd50 D _ZTISt12length_error
000000000013cd90 D _ZTISt12out_of_range
000000000013cbf8 D _ZTISt13bad_exception
000000000013cdd0 D _ZTISt13runtime_error
000000000013ce28 D _ZTISt14overflow_error
000000000013ce68 D _ZTISt15underflow_error
000000000013cd10 D _ZTISt16invalid_argument
00000000001401d8 D _ZTISt16nested_exception
00000000001407d8 D _ZTISt18bad_variant_access
00000000001405e8 D _ZTISt19bad_optional_access
000000000013cc28 D _ZTISt20bad_array_new_length
000000000013cf00 D _ZTISt8bad_cast
000000000013cc10 D _ZTISt9bad_alloc
000000000013cbc0 D _ZTISt9exception
000000000013cef0 D _ZTISt9type_info
000000000013d228 D _ZTIa
000000000013d0e8 D _ZTIb
000000000013d188 D _ZTIc
000000000013d638 D _ZTId
000000000013d688 D _ZTIe
000000000013d5e8 D _ZTIf
000000000013d6d8 D _ZTIg
000000000013d1d8 D _ZTIh
000000000013d318 D _ZTIi
000000000013d368 D _ZTIj
000000000013d3b8 D _ZTIl
000000000013d408 D _ZTIm
000000000013d4f8 D _ZTIn
000000000013d548 D _ZTIo
000000000013d278 D _ZTIs
000000000013d2c8 D _ZTIt
000000000013d048 D _ZTIv
000000000013d138 D _ZTIw
000000000013d458 D _ZTIx
000000000013d4a8 D _ZTIy
000000000005813c R _ZTSDh
0000000000058184 R _ZTSDi
00000000000580a9 R _ZTSDn
0000000000058178 R _ZTSDs
000000000005816c R _ZTSDu
00000000000581b2 R _ZTSN10__cxxabiv116__enum_type_infoE
0000000000057f84 R _ZTSN10__cxxabiv116__shim_type_infoE
0000000000058190 R _ZTSN10__cxxabiv117__array_type_infoE
0000000000057fa5 R _ZTSN10__cxxabiv117__class_type_infoE
0000000000057fc7 R _ZTSN10__cxxabiv117__pbase_type_infoE
0000000000057fe9 R _ZTSN10__cxxabiv119__pointer_type_infoE
000000000005800d R _ZTSN10__cxxabiv120__function_type_infoE
00000000000581d3 R _ZTSN10__cxxabiv120__si_class_type_infoE
00000000000581f8 R _ZTSN10__cxxabiv121__vmi_class_type_infoE
0000000000058078 R _ZTSN10__cxxabiv123__fundamental_type_infoE
0000000000058032 R _ZTSN10__cxxabiv129__pointer_to_member_type_infoE
00000000000599a1 R _ZTSNSt12experimental15fundamentals_v112bad_any_castE
000000000005b034 R _ZTSNSt12experimental19bad_optional_accessE
000000000007927b V _ZTSNSt6__ndk110__time_getE
000000000007934e V _ZTSNSt6__ndk110__time_putE
0000000000078ad6 V _ZTSNSt6__ndk110ctype_baseE
0000000000079952 R _ZTSNSt6__ndk110istrstreamE
000000000007946d V _ZTSNSt6__ndk110money_baseE
000000000007944e V _ZTSNSt6__ndk110moneypunctIcLb0EEE
0000000000079485 V _ZTSNSt6__ndk110moneypunctIcLb1EEE
00000000000794a4 V _ZTSNSt6__ndk110moneypunctIwLb0EEE
00000000000794c3 V _ZTSNSt6__ndk110moneypunctIwLb1EEE
000000000007996a R _ZTSNSt6__ndk110ostrstreamE
00000000000795c3 V _ZTSNSt6__ndk111__money_getIcEE
0000000000079628 V _ZTSNSt6__ndk111__money_getIwEE
000000000007968d V _ZTSNSt6__ndk111__money_putIcEE
00000000000796f2 V _ZTSNSt6__ndk111__money_putIwEE
00000000000798db R _ZTSNSt6__ndk111regex_errorE
000000000005aebd R _ZTSNSt6__ndk112bad_weak_ptrE
0000000000078b10 V _ZTSNSt6__ndk112codecvt_baseE
0000000000078eb6 R _ZTSNSt6__ndk112ctype_bynameIcEE
0000000000078ed3 R _ZTSNSt6__ndk112ctype_bynameIwEE
000000000005acdb R _ZTSNSt6__ndk112future_errorE
0000000000079938 R _ZTSNSt6__ndk112strstreambufE
0000000000077970 R _ZTSNSt6__ndk112system_errorE
0000000000077e65 V _ZTSNSt6__ndk113basic_filebufIcNS_11char_traitsIcEEEE
0000000000077b84 V _ZTSNSt6__ndk113basic_istreamIcNS_11char_traitsIcEEEE
0000000000077c7c V _ZTSNSt6__ndk113basic_istreamIwNS_11char_traitsIwEEEE
0000000000077bb6 V _ZTSNSt6__ndk113basic_ostreamIcNS_11char_traitsIcEEEE
0000000000077cae V _ZTSNSt6__ndk113basic_ostreamIwNS_11char_traitsIwEEEE
0000000000079726 V _ZTSNSt6__ndk113messages_baseE
0000000000078caf R _ZTSNSt6__ndk114__codecvt_utf8IDiEE
0000000000078c8f R _ZTSNSt6__ndk114__codecvt_utf8IDsEE
0000000000078c4e R _ZTSNSt6__ndk114__codecvt_utf8IwEE
0000000000078fc0 V _ZTSNSt6__ndk114__num_get_baseE
000000000007909c V _ZTSNSt6__ndk114__num_put_baseE
000000000005aed7 R _ZTSNSt6__ndk114__shared_countE
0000000000077dff V _ZTSNSt6__ndk114basic_ifstreamIcNS_11char_traitsIcEEEE
0000000000077be8 V _ZTSNSt6__ndk114basic_iostreamIcNS_11char_traitsIcEEEE
0000000000077e32 V _ZTSNSt6__ndk114basic_ofstreamIcNS_11char_traitsIcEEEE
000000000007986f V _ZTSNSt6__ndk114codecvt_bynameIDiDu9mbstate_tEE
0000000000079818 V _ZTSNSt6__ndk114codecvt_bynameIDic9mbstate_tEE
0000000000079843 V _ZTSNSt6__ndk114codecvt_bynameIDsDu9mbstate_tEE
00000000000797ed V _ZTSNSt6__ndk114codecvt_bynameIDsc9mbstate_tEE
0000000000079799 V _ZTSNSt6__ndk114codecvt_bynameIcc9mbstate_tEE
00000000000797c3 V _ZTSNSt6__ndk114codecvt_bynameIwc9mbstate_tEE
0000000000078e35 R _ZTSNSt6__ndk114collate_bynameIcEE
0000000000078e6b R _ZTSNSt6__ndk114collate_bynameIwEE
000000000007798a R _ZTSNSt6__ndk114error_categoryE
0000000000078d61 R _ZTSNSt6__ndk115__codecvt_utf16IDiLb0EEE
0000000000078d86 R _ZTSNSt6__ndk115__codecvt_utf16IDiLb1EEE
0000000000078d17 R _ZTSNSt6__ndk115__codecvt_utf16IDsLb0EEE
0000000000078d3c R _ZTSNSt6__ndk115__codecvt_utf16IDsLb1EEE
0000000000078ccf R _ZTSNSt6__ndk115__codecvt_utf16IwLb0EEE
0000000000078cf3 R _ZTSNSt6__ndk115__codecvt_utf16IwLb1EEE
0000000000077b50 V _ZTSNSt6__ndk115basic_streambufIcNS_11char_traitsIcEEEE
0000000000077c48 V _ZTSNSt6__ndk115basic_streambufIwNS_11char_traitsIwEEEE
0000000000077ce0 V _ZTSNSt6__ndk115basic_stringbufIcNS_11char_traitsIcEENS_9allocatorIcEEEE
0000000000079759 V _ZTSNSt6__ndk115messages_bynameIcEE
0000000000079779 V _ZTSNSt6__ndk115messages_bynameIwEE
0000000000078f20 R _ZTSNSt6__ndk115numpunct_bynameIcEE
0000000000078f40 R _ZTSNSt6__ndk115numpunct_bynameIwEE
0000000000079208 V _ZTSNSt6__ndk115time_get_bynameIcNS_19istreambuf_iteratorIcNS_11char_traitsIcEEEEEE
0000000000079293 V _ZTSNSt6__ndk115time_get_bynameIwNS_19istreambuf_iteratorIwNS_11char_traitsIwEEEEEE
00000000000793ae V _ZTSNSt6__ndk115time_put_bynameIcNS_19ostreambuf_iteratorIcNS_11char_traitsIcEEEEEE
00000000000793fe V _ZTSNSt6__ndk115time_put_bynameIwNS_19ostreambuf_iteratorIwNS_11char_traitsIwEEEEEE
0000000000078bb8 R _ZTSNSt6__ndk116__narrow_to_utf8ILm16EEE
0000000000078bdd R _ZTSNSt6__ndk116__narrow_to_utf8ILm32EEE
000000000005acf5 R _ZTSNSt6__ndk117__assoc_sub_stateE
0000000000078c02 R _ZTSNSt6__ndk117__widen_from_utf8ILm16EEE
0000000000078c28 R _ZTSNSt6__ndk117__widen_from_utf8ILm32EEE
000000000005acb7 R _ZTSNSt6__ndk117bad_function_callE
00000000000794e2 V _ZTSNSt6__ndk117moneypunct_bynameIcLb0EEE
0000000000079508 V _ZTSNSt6__ndk117moneypunct_bynameIcLb1EEE
000000000007952e V _ZTSNSt6__ndk117moneypunct_bynameIwLb0EEE
0000000000079554 V _ZTSNSt6__ndk117moneypunct_bynameIwLb1EEE
0000000000079258 V _ZTSNSt6__ndk118__time_get_storageIcEE
00000000000792e3 V _ZTSNSt6__ndk118__time_get_storageIwEE
0000000000077d25 V _ZTSNSt6__ndk118basic_stringstreamIcNS_11char_traitsIcEENS_9allocatorIcEEEE
000000000005aef3 R _ZTSNSt6__ndk119__shared_weak_countE
0000000000077db6 V _ZTSNSt6__ndk119basic_istringstreamIcNS_11char_traitsIcEENS_9allocatorIcEEEE
0000000000077d6d V _ZTSNSt6__ndk119basic_ostringstreamIcNS_11char_traitsIcEENS_9allocatorIcEEEE
0000000000078dd0 R _ZTSNSt6__ndk120__codecvt_utf8_utf16IDiEE
0000000000078df6 R _ZTSNSt6__ndk120__codecvt_utf8_utf16IDsEE
0000000000078dab R _ZTSNSt6__ndk120__codecvt_utf8_utf16IwEE
0000000000079176 V _ZTSNSt6__ndk120__time_get_c_storageIcEE
00000000000791e3 V _ZTSNSt6__ndk120__time_get_c_storageIwEE
000000000005af3f R _ZTSNSt6__ndk13pmr15memory_resourceE
000000000005af14 R _ZTSNSt6__ndk13pmr25monotonic_buffer_resourceE
000000000005afec V _ZTSNSt6__ndk13pmr26__null_memory_resource_impE
000000000005af8e R _ZTSNSt6__ndk13pmr26synchronized_pool_resourceE
000000000005af60 R _ZTSNSt6__ndk13pmr28unsynchronized_pool_resourceE
000000000005afba V _ZTSNSt6__ndk13pmr32__new_delete_memory_resource_impE
00000000000799d6 R _ZTSNSt6__ndk14__fs10filesystem16filesystem_errorE
0000000000078ea1 R _ZTSNSt6__ndk15ctypeIcEE
0000000000078ac1 R _ZTSNSt6__ndk15ctypeIwEE
0000000000078aa8 R _ZTSNSt6__ndk16locale5facetE
0000000000078b94 R _ZTSNSt6__ndk17codecvtIDiDu9mbstate_tEE
0000000000078b71 R _ZTSNSt6__ndk17codecvtIDic9mbstate_tEE
0000000000078b4d R _ZTSNSt6__ndk17codecvtIDsDu9mbstate_tEE
0000000000078b2a R _ZTSNSt6__ndk17codecvtIDsc9mbstate_tEE
0000000000078aee R _ZTSNSt6__ndk17codecvtIcc9mbstate_tEE
0000000000078c6d R _ZTSNSt6__ndk17codecvtIwc9mbstate_tEE
0000000000078e54 V _ZTSNSt6__ndk17collateIcEE
0000000000078e8a V _ZTSNSt6__ndk17collateIwEE
0000000000078f60 V _ZTSNSt6__ndk17num_getIcNS_19istreambuf_iteratorIcNS_11char_traitsIcEEEEEE
0000000000078fdc V _ZTSNSt6__ndk17num_getIwNS_19istreambuf_iteratorIwNS_11char_traitsIwEEEEEE
000000000007903c V _ZTSNSt6__ndk17num_putIcNS_19ostreambuf_iteratorIcNS_11char_traitsIcEEEEEE
00000000000790b8 V _ZTSNSt6__ndk17num_putIwNS_19ostreambuf_iteratorIwNS_11char_traitsIwEEEEEE
0000000000077aa9 R _ZTSNSt6__ndk18ios_base7failureE
0000000000077a94 R _ZTSNSt6__ndk18ios_baseE
000000000007970e V _ZTSNSt6__ndk18messagesIcEE
0000000000079741 V _ZTSNSt6__ndk18messagesIwEE
0000000000078ef0 R _ZTSNSt6__ndk18numpunctIcEE
0000000000078f08 R _ZTSNSt6__ndk18numpunctIwEE
0000000000079118 V _ZTSNSt6__ndk18time_getIcNS_19istreambuf_iteratorIcNS_11char_traitsIcEEEEEE
000000000007919b V _ZTSNSt6__ndk18time_getIwNS_19istreambuf_iteratorIwNS_11char_traitsIwEEEEEE
0000000000079306 V _ZTSNSt6__ndk18time_putIcNS_19ostreambuf_iteratorIcNS_11char_traitsIcEEEEEE
0000000000079366 V _ZTSNSt6__ndk18time_putIwNS_19ostreambuf_iteratorIwNS_11char_traitsIwEEEEEE
0000000000078fa7 V _ZTSNSt6__ndk19__num_getIcEE
0000000000079023 V _ZTSNSt6__ndk19__num_getIwEE
0000000000079083 V _ZTSNSt6__ndk19__num_putIcEE
00000000000790ff V _ZTSNSt6__ndk19__num_putIwEE
0000000000077b23 V _ZTSNSt6__ndk19basic_iosIcNS_11char_traitsIcEEEE
0000000000077c1b V _ZTSNSt6__ndk19basic_iosIwNS_11char_traitsIwEEEE
000000000007957a V _ZTSNSt6__ndk19money_getIcNS_19istreambuf_iteratorIcNS_11char_traitsIcEEEEEE
00000000000795df V _ZTSNSt6__ndk19money_getIwNS_19istreambuf_iteratorIwNS_11char_traitsIwEEEEEE
0000000000079644 V _ZTSNSt6__ndk19money_putIcNS_19ostreambuf_iteratorIcNS_11char_traitsIcEEEEEE
00000000000796a9 V _ZTSNSt6__ndk19money_putIwNS_19ostreambuf_iteratorIwNS_11char_traitsIwEEEEEE
0000000000079982 R _ZTSNSt6__ndk19strstreamE
0000000000079160 V _ZTSNSt6__ndk19time_baseE
000000000005813f R _ZTSPDh
0000000000058187 R _ZTSPDi
00000000000580ac R _ZTSPDn
000000000005817b R _ZTSPDs
000000000005816f R _ZTSPDu
0000000000058143 R _ZTSPKDh
000000000005818b R _ZTSPKDi
00000000000580b0 R _ZTSPKDn
000000000005817f R _ZTSPKDs
0000000000058173 R _ZTSPKDu
00000000000580de R _ZTSPKa
00000000000580ba R _ZTSPKb
00000000000580cc R _ZTSPKc
0000000000058156 R _ZTSPKd
000000000005815f R _ZTSPKe
000000000005814d R _ZTSPKf
0000000000058168 R _ZTSPKg
00000000000580d5 R _ZTSPKh
00000000000580f9 R _ZTSPKi
0000000000058102 R _ZTSPKj
000000000005810b R _ZTSPKl
0000000000058114 R _ZTSPKm
000000000005812f R _ZTSPKn
0000000000058138 R _ZTSPKo
00000000000580e7 R _ZTSPKs
00000000000580f0 R _ZTSPKt
00000000000580a5 R _ZTSPKv
00000000000580c3 R _ZTSPKw
000000000005811d R _ZTSPKx
0000000000058126 R _ZTSPKy
00000000000580db R _ZTSPa
00000000000580b7 R _ZTSPb
00000000000580c9 R _ZTSPc
0000000000058153 R _ZTSPd
000000000005815c R _ZTSPe
000000000005814a R _ZTSPf
0000000000058165 R _ZTSPg
00000000000580d2 R _ZTSPh
00000000000580f6 R _ZTSPi
00000000000580ff R _ZTSPj
0000000000058108 R _ZTSPl
0000000000058111 R _ZTSPm
000000000005812c R _ZTSPn
0000000000058135 R _ZTSPo
00000000000580e4 R _ZTSPs
00000000000580ed R _ZTSPt
00000000000580a2 R _ZTSPv
00000000000580c0 R _ZTSPw
000000000005811a R _ZTSPx
0000000000058123 R _ZTSPy
0000000000057f75 R _ZTSSt10bad_typeid
0000000000057ecc R _ZTSSt11logic_error
0000000000057f13 R _ZTSSt11range_error
0000000000059990 R _ZTSSt12bad_any_cast
0000000000057ebb R _ZTSSt12domain_error
0000000000057ef1 R _ZTSSt12length_error
0000000000057f02 R _ZTSSt12out_of_range
0000000000057e83 R _ZTSSt13bad_exception
0000000000057f23 R _ZTSSt13runtime_error
0000000000057f35 R _ZTSSt14overflow_error
0000000000057f48 R _ZTSSt15underflow_error
0000000000057edc R _ZTSSt16invalid_argument
000000000005aca2 R _ZTSSt16nested_exception
0000000000077a0c R _ZTSSt18bad_variant_access
000000000005b01c R _ZTSSt19bad_optional_access
0000000000057e95 R _ZTSSt20bad_array_new_length
0000000000057f69 R _ZTSSt8bad_cast
0000000000057eae R _ZTSSt9bad_alloc
0000000000057e76 R _ZTSSt9exception
0000000000057f5c R _ZTSSt9type_info
00000000000580d9 R _ZTSa
00000000000580b5 R _ZTSb
00000000000580c7 R _ZTSc
0000000000058151 R _ZTSd
000000000005815a R _ZTSe
0000000000058148 R _ZTSf
0000000000058163 R _ZTSg
00000000000580d0 R _ZTSh
00000000000580f4 R _ZTSi
00000000000580fd R _ZTSj
0000000000058106 R _ZTSl
000000000005810f R _ZTSm
000000000005812a R _ZTSn
0000000000058133 R _ZTSo
00000000000580e2 R _ZTSs
00000000000580eb R _ZTSt
00000000000580a0 R _ZTSv
00000000000580be R _ZTSw
0000000000058118 R _ZTSx
0000000000058121 R _ZTSy
00000000001446d0 D _ZTTNSt6__ndk110istrstreamE
0000000000144740 D _ZTTNSt6__ndk110ostrstreamE
0000000000140990 V _ZTTNSt6__ndk113basic_istreamIcNS_11char_traitsIcEEEE
0000000000140b80 V _ZTTNSt6__ndk113basic_istreamIwNS_11char_traitsIwEEEE
00000000001409f0 V _ZTTNSt6__ndk113basic_ostreamIcNS_11char_traitsIcEEEE
0000000000140be0 V _ZTTNSt6__ndk113basic_ostreamIwNS_11char_traitsIwEEEE
0000000000141308 V _ZTTNSt6__ndk114basic_ifstreamIcNS_11char_traitsIcEEEE
0000000000140a78 V _ZTTNSt6__ndk114basic_iostreamIcNS_11char_traitsIcEEEE
00000000001413e0 V _ZTTNSt6__ndk114basic_ofstreamIcNS_11char_traitsIcEEEE
0000000000140f88 V _ZTTNSt6__ndk118basic_stringstreamIcNS_11char_traitsIcEENS_9allocatorIcEEEE
0000000000141230 V _ZTTNSt6__ndk119basic_istringstreamIcNS_11char_traitsIcEENS_9allocatorIcEEEE
0000000000141158 V _ZTTNSt6__ndk119basic_ostringstreamIcNS_11char_traitsIcEENS_9allocatorIcEEEE
00000000001447d8 D _ZTTNSt6__ndk19strstreamE
000000000013d8a0 D _ZTVN10__cxxabiv116__enum_type_infoE
000000000013cfc0 D _ZTVN10__cxxabiv116__shim_type_infoE
000000000013d818 D _ZTVN10__cxxabiv117__array_type_infoE
000000000013d8f0 D _ZTVN10__cxxabiv117__class_type_infoE
000000000013da10 D _ZTVN10__cxxabiv117__pbase_type_infoE
000000000013da48 D _ZTVN10__cxxabiv119__pointer_type_infoE
000000000013d868 D _ZTVN10__cxxabiv120__function_type_infoE
000000000013d940 D _ZTVN10__cxxabiv120__si_class_type_infoE
000000000013d9a8 D _ZTVN10__cxxabiv121__vmi_class_type_infoE
000000000013cff8 D _ZTVN10__cxxabiv123__fundamental_type_infoE
000000000013da80 D _ZTVN10__cxxabiv129__pointer_to_member_type_infoE
0000000000140178 D _ZTVNSt12experimental15fundamentals_v112bad_any_castE
0000000000140600 D _ZTVNSt12experimental19bad_optional_accessE
0000000000144680 D _ZTVNSt6__ndk110istrstreamE
0000000000143170 V _ZTVNSt6__ndk110moneypunctIcLb0EEE
0000000000143228 V _ZTVNSt6__ndk110moneypunctIcLb1EEE
00000000001432d0 V _ZTVNSt6__ndk110moneypunctIwLb0EEE
0000000000143378 V _ZTVNSt6__ndk110moneypunctIwLb1EEE
00000000001446f0 D _ZTVNSt6__ndk110ostrstreamE
0000000000143de0 D _ZTVNSt6__ndk111regex_errorE
0000000000140310 D _ZTVNSt6__ndk112bad_weak_ptrE
00000000001417f0 D _ZTVNSt6__ndk112ctype_bynameIcEE
0000000000141858 D _ZTVNSt6__ndk112ctype_bynameIwEE
0000000000140270 D _ZTVNSt6__ndk112future_errorE
0000000000144600 D _ZTVNSt6__ndk112strstreambufE
0000000000140688 D _ZTVNSt6__ndk112system_errorE
0000000000140c70 V _ZTVNSt6__ndk113basic_filebufIcNS_11char_traitsIcEEEE
0000000000140940 V _ZTVNSt6__ndk113basic_istreamIcNS_11char_traitsIcEEEE
0000000000140b30 V _ZTVNSt6__ndk113basic_istreamIwNS_11char_traitsIwEEEE
00000000001409a0 V _ZTVNSt6__ndk113basic_ostreamIcNS_11char_traitsIcEEEE
0000000000140b90 V _ZTVNSt6__ndk113basic_ostreamIwNS_11char_traitsIwEEEE
00000000001421a0 D _ZTVNSt6__ndk114__codecvt_utf8IDiEE
0000000000142128 D _ZTVNSt6__ndk114__codecvt_utf8IDsEE
0000000000142078 D _ZTVNSt6__ndk114__codecvt_utf8IwEE
0000000000140350 D _ZTVNSt6__ndk114__shared_countE
00000000001412b8 V _ZTVNSt6__ndk114basic_ifstreamIcNS_11char_traitsIcEEEE
0000000000140a00 V _ZTVNSt6__ndk114basic_iostreamIcNS_11char_traitsIcEEEE
0000000000141390 V _ZTVNSt6__ndk114basic_ofstreamIcNS_11char_traitsIcEEEE
0000000000143c48 V _ZTVNSt6__ndk114codecvt_bynameIDiDu9mbstate_tEE
0000000000143b58 V _ZTVNSt6__ndk114codecvt_bynameIDic9mbstate_tEE
0000000000143bd0 V _ZTVNSt6__ndk114codecvt_bynameIDsDu9mbstate_tEE
0000000000143ae0 V _ZTVNSt6__ndk114codecvt_bynameIDsc9mbstate_tEE
00000000001439f0 V _ZTVNSt6__ndk114codecvt_bynameIcc9mbstate_tEE
0000000000143a68 V _ZTVNSt6__ndk114codecvt_bynameIwc9mbstate_tEE
0000000000141708 D _ZTVNSt6__ndk114collate_bynameIcEE
0000000000141748 D _ZTVNSt6__ndk114collate_bynameIwEE
0000000000140640 D _ZTVNSt6__ndk114error_categoryE
00000000001423f8 D _ZTVNSt6__ndk115__codecvt_utf16IDiLb0EEE
0000000000142470 D _ZTVNSt6__ndk115__codecvt_utf16IDiLb1EEE
0000000000142308 D _ZTVNSt6__ndk115__codecvt_utf16IDsLb0EEE
0000000000142380 D _ZTVNSt6__ndk115__codecvt_utf16IDsLb1EEE
0000000000142218 D _ZTVNSt6__ndk115__codecvt_utf16IwLb0EEE
0000000000142290 D _ZTVNSt6__ndk115__codecvt_utf16IwLb1EEE
00000000001408c0 V _ZTVNSt6__ndk115basic_streambufIcNS_11char_traitsIcEEEE
0000000000140ab0 V _ZTVNSt6__ndk115basic_streambufIwNS_11char_traitsIwEEEE
0000000000140bf0 V _ZTVNSt6__ndk115basic_stringbufIcNS_11char_traitsIcEENS_9allocatorIcEEEE
0000000000143940 V _ZTVNSt6__ndk115messages_bynameIcEE
0000000000143998 V _ZTVNSt6__ndk115messages_bynameIwEE
00000000001419e0 D _ZTVNSt6__ndk115numpunct_bynameIcEE
0000000000141a30 D _ZTVNSt6__ndk115numpunct_bynameIwEE
0000000000142d90 V _ZTVNSt6__ndk115time_get_bynameIcNS_19istreambuf_iteratorIcNS_11char_traitsIcEEEEEE
0000000000142ed0 V _ZTVNSt6__ndk115time_get_bynameIwNS_19istreambuf_iteratorIwNS_11char_traitsIwEEEEEE
00000000001430e0 V _ZTVNSt6__ndk115time_put_bynameIcNS_19ostreambuf_iteratorIcNS_11char_traitsIcEEEEEE
0000000000143128 V _ZTVNSt6__ndk115time_put_bynameIwNS_19ostreambuf_iteratorIwNS_11char_traitsIwEEEEEE
0000000000141e98 D _ZTVNSt6__ndk116__narrow_to_utf8ILm16EEE
0000000000141f10 D _ZTVNSt6__ndk116__narrow_to_utf8ILm32EEE
00000000001402b0 D _ZTVNSt6__ndk117__assoc_sub_stateE
0000000000141f88 D _ZTVNSt6__ndk117__widen_from_utf8ILm16EEE
0000000000142000 D _ZTVNSt6__ndk117__widen_from_utf8ILm32EEE
00000000001401e8 D _ZTVNSt6__ndk117bad_function_callE
0000000000143420 V _ZTVNSt6__ndk117moneypunct_bynameIcLb0EEE
00000000001434a8 V _ZTVNSt6__ndk117moneypunct_bynameIcLb1EEE
0000000000143530 V _ZTVNSt6__ndk117moneypunct_bynameIwLb0EEE
00000000001435b8 V _ZTVNSt6__ndk117moneypunct_bynameIwLb1EEE
0000000000140f10 V _ZTVNSt6__ndk118basic_stringstreamIcNS_11char_traitsIcEENS_9allocatorIcEEEE
0000000000140388 D _ZTVNSt6__ndk119__shared_weak_countE
00000000001411e0 V _ZTVNSt6__ndk119basic_istringstreamIcNS_11char_traitsIcEENS_9allocatorIcEEEE
0000000000141108 V _ZTVNSt6__ndk119basic_ostringstreamIcNS_11char_traitsIcEENS_9allocatorIcEEEE
0000000000142560 D _ZTVNSt6__ndk120__codecvt_utf8_utf16IDiEE
00000000001425d8 D _ZTVNSt6__ndk120__codecvt_utf8_utf16IDsEE
00000000001424e8 D _ZTVNSt6__ndk120__codecvt_utf8_utf16IwEE
00000000001404f0 D _ZTVNSt6__ndk13pmr15memory_resourceE
0000000000140490 D _ZTVNSt6__ndk13pmr25monotonic_buffer_resourceE
0000000000140420 V _ZTVNSt6__ndk13pmr26__null_memory_resource_impE
0000000000140540 D _ZTVNSt6__ndk13pmr26synchronized_pool_resourceE
0000000000140458 D _ZTVNSt6__ndk13pmr28unsynchronized_pool_resourceE
00000000001403e8 V _ZTVNSt6__ndk13pmr32__new_delete_memory_resource_impE
0000000000144a40 D _ZTVNSt6__ndk14__fs10filesystem16filesystem_errorE
0000000000141788 D _ZTVNSt6__ndk15ctypeIcEE
0000000000141ac0 D _ZTVNSt6__ndk15ctypeIwEE
0000000000141a80 D _ZTVNSt6__ndk16locale5facetE
0000000000141e00 D _ZTVNSt6__ndk17codecvtIDiDu9mbstate_tEE
0000000000141d68 D _ZTVNSt6__ndk17codecvtIDic9mbstate_tEE
0000000000141cd0 D _ZTVNSt6__ndk17codecvtIDsDu9mbstate_tEE
0000000000141c38 D _ZTVNSt6__ndk17codecvtIDsc9mbstate_tEE
0000000000141b90 D _ZTVNSt6__ndk17codecvtIcc9mbstate_tEE
00000000001418e0 D _ZTVNSt6__ndk17codecvtIwc9mbstate_tEE
0000000000142790 V _ZTVNSt6__ndk17collateIcEE
00000000001427d0 V _ZTVNSt6__ndk17collateIwEE
0000000000142810 V _ZTVNSt6__ndk17num_getIcNS_19istreambuf_iteratorIcNS_11char_traitsIcEEEEEE
0000000000142900 V _ZTVNSt6__ndk17num_getIwNS_19istreambuf_iteratorIwNS_11char_traitsIwEEEEEE
00000000001429e0 V _ZTVNSt6__ndk17num_putIcNS_19ostreambuf_iteratorIcNS_11char_traitsIcEEEEEE
0000000000142ab8 V _ZTVNSt6__ndk17num_putIwNS_19ostreambuf_iteratorIwNS_11char_traitsIwEEEEEE
0000000000140838 D _ZTVNSt6__ndk18ios_base7failureE
0000000000140860 D _ZTVNSt6__ndk18ios_baseE
0000000000143840 V _ZTVNSt6__ndk18messagesIcEE
00000000001438c8 V _ZTVNSt6__ndk18messagesIwEE
0000000000141940 D _ZTVNSt6__ndk18numpunctIcEE
0000000000141990 D _ZTVNSt6__ndk18numpunctIwEE
0000000000142b80 V _ZTVNSt6__ndk18time_getIcNS_19istreambuf_iteratorIcNS_11char_traitsIcEEEEEE
0000000000142c90 V _ZTVNSt6__ndk18time_getIwNS_19istreambuf_iteratorIwNS_11char_traitsIwEEEEEE
0000000000143000 V _ZTVNSt6__ndk18time_putIcNS_19ostreambuf_iteratorIcNS_11char_traitsIcEEEEEE
0000000000143078 V _ZTVNSt6__ndk18time_putIwNS_19ostreambuf_iteratorIwNS_11char_traitsIwEEEEEE
0000000000140cf0 V _ZTVNSt6__ndk19basic_iosIcNS_11char_traitsIcEEEE
0000000000140e60 V _ZTVNSt6__ndk19basic_iosIwNS_11char_traitsIwEEEE
0000000000143640 V _ZTVNSt6__ndk19money_getIcNS_19istreambuf_iteratorIcNS_11char_traitsIcEEEEEE
00000000001436c0 V _ZTVNSt6__ndk19money_getIwNS_19istreambuf_iteratorIwNS_11char_traitsIwEEEEEE
0000000000143740 V _ZTVNSt6__ndk19money_putIcNS_19ostreambuf_iteratorIcNS_11char_traitsIcEEEEEE
00000000001437c0 V _ZTVNSt6__ndk19money_putIwNS_19ostreambuf_iteratorIwNS_11char_traitsIwEEEEEE
0000000000144760 D _ZTVNSt6__ndk19strstreamE
000000000013cea8 D _ZTVSt10bad_typeid
000000000013cc40 D _ZTVSt11logic_error
000000000013cda8 D _ZTVSt11range_error
0000000000140138 D _ZTVSt12bad_any_cast
000000000013cc90 D _ZTVSt12domain_error
000000000013cd28 D _ZTVSt12length_error
000000000013cd68 D _ZTVSt12out_of_range
000000000013cbd0 D _ZTVSt13bad_exception
000000000013cc68 D _ZTVSt13runtime_error
000000000013ce00 D _ZTVSt14overflow_error
000000000013ce40 D _ZTVSt15underflow_error
000000000013cce8 D _ZTVSt16invalid_argument
00000000001401b8 D _ZTVSt16nested_exception
00000000001407b0 D _ZTVSt18bad_variant_access
00000000001405c0 D _ZTVSt19bad_optional_access
000000000013cb70 D _ZTVSt20bad_array_new_length
000000000013ce80 D _ZTVSt8bad_cast
000000000013cb48 D _ZTVSt9bad_alloc
000000000013cb98 D _ZTVSt9exception
000000000013ced0 D _ZTVSt9type_info
00000000000e8e04 W _ZThn16_NSt6__ndk114basic_iostreamIcNS_11char_traitsIcEEED0Ev
00000000000e8db0 W _ZThn16_NSt6__ndk114basic_iostreamIcNS_11char_traitsIcEEED1Ev
0000000000128fd0 T _ZThn16_NSt6__ndk19strstreamD0Ev
0000000000128e8c T _ZThn16_NSt6__ndk19strstreamD1Ev
0000000000128b7c T _ZTv0_n24_NSt6__ndk110istrstreamD0Ev
0000000000128ab0 T _ZTv0_n24_NSt6__ndk110istrstreamD1Ev
0000000000128d60 T _ZTv0_n24_NSt6__ndk110ostrstreamD0Ev
0000000000128c94 T _ZTv0_n24_NSt6__ndk110ostrstreamD1Ev
00000000000e44ec W _ZTv0_n24_NSt6__ndk113basic_istreamIcNS_11char_traitsIcEEED0Ev
00000000000e44a4 W _ZTv0_n24_NSt6__ndk113basic_istreamIcNS_11char_traitsIcEEED1Ev
00000000000e97d4 W _ZTv0_n24_NSt6__ndk113basic_istreamIwNS_11char_traitsIwEEED0Ev
00000000000e978c W _ZTv0_n24_NSt6__ndk113basic_istreamIwNS_11char_traitsIwEEED1Ev
00000000000e6fe0 W _ZTv0_n24_NSt6__ndk113basic_ostreamIcNS_11char_traitsIcEEED0Ev
00000000000e6f98 W _ZTv0_n24_NSt6__ndk113basic_ostreamIcNS_11char_traitsIcEEED1Ev
00000000000ec310 W _ZTv0_n24_NSt6__ndk113basic_ostreamIwNS_11char_traitsIwEEED0Ev
00000000000ec2c8 W _ZTv0_n24_NSt6__ndk113basic_ostreamIwNS_11char_traitsIwEEED1Ev
00000000000e8e34 W _ZTv0_n24_NSt6__ndk114basic_iostreamIcNS_11char_traitsIcEEED0Ev
00000000000e8dbc W _ZTv0_n24_NSt6__ndk114basic_iostreamIcNS_11char_traitsIcEEED1Ev
000000000012903c T _ZTv0_n24_NSt6__ndk19strstreamD0Ev
0000000000128ef0 T _ZTv0_n24_NSt6__ndk19strstreamD1Ev
00000000000b6790 W _ZdaPv
00000000000b6798 W _ZdaPvRKSt9nothrow_t
00000000000b68cc W _ZdaPvSt11align_val_t
00000000000b68d4 W _ZdaPvSt11align_val_tRKSt9nothrow_t
00000000000b67a0 W _ZdaPvm
00000000000b68dc W _ZdaPvmSt11align_val_t
00000000000b6778 W _ZdlPv
00000000000b6780 W _ZdlPvRKSt9nothrow_t
00000000000b68b0 W _ZdlPvSt11align_val_t
00000000000b68b8 W _ZdlPvSt11align_val_tRKSt9nothrow_t
00000000000b6788 W _ZdlPvm
00000000000b68c0 W _ZdlPvmSt11align_val_t
00000000000b6738 W _Znam
00000000000b6740 W _ZnamRKSt9nothrow_t
00000000000b6870 W _ZnamSt11align_val_t
00000000000b6878 W _ZnamSt11align_val_tRKSt9nothrow_t
00000000000b668c W _Znwm
00000000000b6700 W _ZnwmRKSt9nothrow_t
00000000000b67a8 W _ZnwmSt11align_val_t
00000000000b6838 W _ZnwmSt11align_val_tRKSt9nothrow_t
                 U __assert2@LIBC
                 U __ctype_get_mb_cur_max@LIBC
00000000000b6a3c T __cxa_allocate_dependent_exception
00000000000b6918 T __cxa_allocate_exception
                 U __cxa_atexit@LIBC
000000000009c890 T __cxa_bad_cast
000000000009c8c8 T __cxa_bad_typeid
00000000000b696c T __cxa_begin_catch
00000000000b7884 T __cxa_call_unexpected
00000000000b6cf8 T __cxa_current_exception_type
00000000000b6e60 T __cxa_current_primary_exception
00000000000b6c9c T __cxa_decrement_exception_refcount
000000000009d7d8 T __cxa_deleted_virtual
000000000009fa0c T __cxa_demangle
00000000000b6b9c T __cxa_end_catch
                 U __cxa_finalize@LIBC
00000000000b6a78 T __cxa_free_dependent_exception
00000000000b6a18 T __cxa_free_exception
00000000000b6b90 T __cxa_get_exception_ptr
000000000009cb58 T __cxa_get_globals
000000000009cb7c T __cxa_get_globals_fast
000000000009cd8c T __cxa_guard_abort
000000000009cba0 T __cxa_guard_acquire
000000000009cce4 T __cxa_guard_release
00000000000b6e34 T __cxa_increment_exception_refcount
0000000000147540 B __cxa_new_handler
000000000009d7c0 T __cxa_pure_virtual
00000000000b6d50 T __cxa_rethrow
00000000000b6ef0 T __cxa_rethrow_primary_exception
0000000000147340 D __cxa_terminate_handler
00000000000b7d94 T __cxa_thread_atexit
                 w __cxa_thread_atexit_impl
00000000000b6a80 T __cxa_throw
000000000009c900 T __cxa_throw_bad_array_new_length
00000000000b7094 T __cxa_uncaught_exception
00000000000b70dc T __cxa_uncaught_exceptions
0000000000147348 D __cxa_unexpected_handler
000000000009d29c T __cxa_vec_cctor
000000000009d468 T __cxa_vec_cleanup
000000000009d0f8 T __cxa_vec_ctor
000000000009d4c4 T __cxa_vec_delete
000000000009d5b0 T __cxa_vec_delete2
000000000009d694 T __cxa_vec_delete3
000000000009d3b4 T __cxa_vec_dtor
000000000009cf0c T __cxa_vec_new
000000000009cff8 T __cxa_vec_new2
000000000009d18c T __cxa_vec_new3
000000000009e3ac T __dynamic_cast
000000000013445c W __emutls_get_address
                 U __errno@LIBC
00000000000b7104 T __gxx_personality_v0
0000000000133e40 T __muloti4
                 U __sF@LIBC
                 U __system_property_get@LIBC
                 U abort@LIBC
                 U android_set_abort_message@LIBC
                 U btowc@LIBC
                 U chdir@LIBC
                 U clock_gettime@LIBC
                 U close@LIBC
                 U closedir@LIBC
                 U closelog@LIBC
                 U dl_iterate_phdr@LIBC
                 U fchmod@LIBC
                 U fchmodat@LIBC
                 U fclose@LIBC
                 U fdopendir@LIBC
                 U fflush@LIBC
                 U fopen@LIBC
                 U fprintf@LIBC
                 U fputc@LIBC
                 U fread@LIBC
                 U free@LIBC
                 U freelocale@LIBC
                 U fseek@LIBC
                 U fseeko@LIBC
                 U fstat@LIBC
                 U ftello@LIBC
                 U ftruncate@LIBC
                 U fwrite@LIBC
                 U getauxval@LIBC
                 U getc@LIBC
                 U getcwd@LIBC
                 U getenv@LIBC
                 U getpid@LIBC
                 U ioctl@LIBC
                 U isdigit_l@LIBC
                 U islower_l@LIBC
                 U isupper_l@LIBC
                 U iswalpha_l@LIBC
                 U iswblank_l@LIBC
                 U iswcntrl_l@LIBC
                 U iswdigit_l@LIBC
                 U iswlower_l@LIBC
                 U iswprint_l@LIBC
                 U iswpunct_l@LIBC
                 U iswspace_l@LIBC
                 U iswupper_l@LIBC
                 U iswxdigit_l@LIBC
                 U isxdigit_l@LIBC
                 U link@LIBC
                 U localeconv@LIBC
                 U lstat@LIBC
                 U malloc@LIBC
                 U mbrlen@LIBC
                 U mbrtowc@LIBC
                 U mbsnrtowcs@LIBC
                 U mbsrtowcs@LIBC
                 U mbtowc@LIBC
                 U memchr@LIBC
                 U memcmp@LIBC
                 U memcpy@LIBC
                 U memmove@LIBC
                 U memset@LIBC
                 U mkdir@LIBC
                 U nanosleep@LIBC
                 U newlocale@LIBC
                 U open@LIBC
                 U openat@LIBC
                 U opendir@LIBC
                 U openlog@LIBC
                 U pathconf@LIBC
                 U posix_memalign@LIBC
                 U pthread_cond_broadcast@LIBC
                 U pthread_cond_destroy@LIBC
                 U pthread_cond_signal@LIBC
                 U pthread_cond_timedwait@LIBC
                 U pthread_cond_wait@LIBC
                 U pthread_detach@LIBC
                 U pthread_getspecific@LIBC
                 U pthread_join@LIBC
                 U pthread_key_create@LIBC
                 U pthread_key_delete@LIBC
                 U pthread_mutex_destroy@LIBC
                 U pthread_mutex_init@LIBC
                 U pthread_mutex_lock@LIBC
                 U pthread_mutex_trylock@LIBC
                 U pthread_mutex_unlock@LIBC
                 U pthread_mutexattr_destroy@LIBC
                 U pthread_mutexattr_init@LIBC
                 U pthread_mutexattr_settype@LIBC
                 U pthread_once@LIBC
                 U pthread_rwlock_rdlock@LIBC
                 U pthread_rwlock_unlock@LIBC
                 U pthread_rwlock_wrlock@LIBC
                 U pthread_self@LIBC
                 U pthread_setspecific@LIBC
                 U read@LIBC
                 U readdir@LIBC
                 U readlink@LIBC
                 U realloc@LIBC
                 U realpath@LIBC
                 U remove@LIBC
                 U rename@LIBC
                 U sendfile@LIBC
                 U setlocale@LIBC
                 U snprintf@LIBC
                 U sscanf@LIBC
                 U stat@LIBC
                 U statvfs@LIBC
                 U strcmp@LIBC
                 U strcoll_l@LIBC
                 U strerror_r@LIBC
                 U strftime_l@LIBC
                 U strlen@LIBC
                 U strncmp@LIBC
                 U strtod@LIBC
                 U strtof@LIBC
                 U strtol@LIBC
                 U strtold@LIBC
                 U strtold_l@LIBC
                 U strtoll@LIBC
                 U strtoll_l@LIBC
                 U strtoul@LIBC
                 U strtoull@LIBC
                 U strtoull_l@LIBC
                 U strxfrm_l@LIBC
                 U swprintf@LIBC
                 U symlink@LIBC
                 U syscall@LIBC
                 U sysconf@LIBC
                 U syslog@LIBC
                 U tolower_l@LIBC
                 U toupper_l@LIBC
                 U towlower_l@LIBC
                 U towupper_l@LIBC
                 U truncate@LIBC
                 U ungetc@LIBC
                 U unlinkat@LIBC
                 U uselocale@LIBC
                 U utimensat@LIBC
                 U vasprintf@LIBC
                 U vfprintf@LIBC
                 U vsnprintf@LIBC
                 U vsscanf@LIBC
                 U wcrtomb@LIBC
                 U wcscoll_l@LIBC
                 U wcslen@LIBC
                 U wcsnrtombs@LIBC
                 U wcstod@LIBC
                 U wcstof@LIBC
                 U wcstol@LIBC
                 U wcstold@LIBC
                 U wcstoll@LIBC
                 U wcstoul@LIBC
                 U wcstoull@LIBC
                 U wcsxfrm_l@LIBC
                 U wctob@LIBC
                 U wmemchr@LIBC
                 U wmemcmp@LIBC
